ccopy_reg
_reconstructor
p0
(canalyze_sampling
pathens
p1
c__builtin__
object
p2
Ntp3
Rp4
(dp5
S'cutoff'
p6
F24.757340867941735
sS'fileprefix'
p7
S'/scrapp2/scalhoun/output/pathcomb_4_'
p8
sS'np_path_array'
p9
cnumpy.core.multiarray
_reconstruct
p10
(cnumpy
ndarray
p11
(I0
tp12
S'b'
p13
tp14
Rp15
(I1
(I39
tp16
cnumpy
dtype
p17
(S'V208'
p18
I0
I1
tp19
Rp20
(I3
S'|'
p21
N(S'obj'
p22
S'strrepr'
p23
S'run'
p24
tp25
(dp26
g24
(g17
(S'i4'
p27
I0
I1
tp28
Rp29
(I3
S'<'
p30
NNNI-1
I-1
I0
tp31
bI204
tp32
sg22
(g17
(S'f4'
p33
I0
I1
tp34
Rp35
(I3
S'<'
p36
NNNI-1
I-1
I0
tp37
bI0
tp38
sg23
(g17
(S'S200'
p39
I0
I1
tp40
Rp41
(I3
S'|'
p42
NNNI200
I1
I0
tp43
bI4
tp44
sI208
I1
I0
tp45
bI00
S'\x17\x02\xc7AZINC56874962 -> k1 -> ZINC03606137 -> k3 -> ZINC18168715 -> k2 -> ZINC02562361 -> k4 -> ZINC30725157\x00\x00\x00\x00\x00\x00\x00\x00\x00\x00\x00\x00\x00\x00\x00\x00\x00\x00\x00\x00\x00\x00\x00\x00\x00\x00\x00\x00\x00\x00\x00\x00\x00\x00\x00\x00\x00\x00\x00\x00\x00\x00\x00\x00\x00\x00\x00\x00\x00\x00\x00\x00\x00\x00\x00\x00\x00\x00\x00\x00\x00\x00\x00\x00\x00\x00\x00\x00\x00\x00\x00\x00\x00\x00\x00\x00\x00\x00\x00\x00\x00\x00\x00\x00\x00\x00\x00\x00\x00\x00\x00\x00\x00\x00\x00\x00\x00\x00\x00\x00\t\x00\x00\x00V\xe7\xd7AZINC01532567 -> k1 -> ZINC03606137 -> k3 -> ZINC18168715 -> k2 -> ZINC02562361 -> k4 -> ZINC30725157\x00\x00\x00\x00\x00\x00\x00\x00\x00\x00\x00\x00\x00\x00\x00\x00\x00\x00\x00\x00\x00\x00\x00\x00\x00\x00\x00\x00\x00\x00\x00\x00\x00\x00\x00\x00\x00\x00\x00\x00\x00\x00\x00\x00\x00\x00\x00\x00\x00\x00\x00\x00\x00\x00\x00\x00\x00\x00\x00\x00\x00\x00\x00\x00\x00\x00\x00\x00\x00\x00\x00\x00\x00\x00\x00\x00\x00\x00\x00\x00\x00\x00\x00\x00\x00\x00\x00\x00\x00\x00\x00\x00\x00\x00\x00\x00\x00\x00\x00\x00\t\x00\x00\x005}\xd7AZINC01532567 -> k1 -> ZINC03606137 -> k3 -> ZINC18168715 -> k2 -> ZINC02562361 -> k4 -> ZINC30725161\x00\x00\x00\x00\x00\x00\x00\x00\x00\x00\x00\x00\x00\x00\x00\x00\x00\x00\x00\x00\x00\x00\x00\x00\x00\x00\x00\x00\x00\x00\x00\x00\x00\x00\x00\x00\x00\x00\x00\x00\x00\x00\x00\x00\x00\x00\x00\x00\x00\x00\x00\x00\x00\x00\x00\x00\x00\x00\x00\x00\x00\x00\x00\x00\x00\x00\x00\x00\x00\x00\x00\x00\x00\x00\x00\x00\x00\x00\x00\x00\x00\x00\x00\x00\x00\x00\x00\x00\x00\x00\x00\x00\x00\x00\x00\x00\x00\x00\x00\x00\t\x00\x00\x00\xf6\x97\xc6AZINC56874962 -> k1 -> ZINC03606137 -> k3 -> ZINC18168715 -> k2 -> ZINC02562361 -> k4 -> ZINC30725161\x00\x00\x00\x00\x00\x00\x00\x00\x00\x00\x00\x00\x00\x00\x00\x00\x00\x00\x00\x00\x00\x00\x00\x00\x00\x00\x00\x00\x00\x00\x00\x00\x00\x00\x00\x00\x00\x00\x00\x00\x00\x00\x00\x00\x00\x00\x00\x00\x00\x00\x00\x00\x00\x00\x00\x00\x00\x00\x00\x00\x00\x00\x00\x00\x00\x00\x00\x00\x00\x00\x00\x00\x00\x00\x00\x00\x00\x00\x00\x00\x00\x00\x00\x00\x00\x00\x00\x00\x00\x00\x00\x00\x00\x00\x00\x00\x00\x00\x00\x00\x1a\x00\x00\x00\x07\xb6\xccAZINC03870277 -> k3 -> ZINC01532567 -> k1 -> ZINC03606137 -> k2 -> ZINC03870009 -> k4 -> ZINC30725157\x00\x00\x00\x00\x00\x00\x00\x00\x00\x00\x00\x00\x00\x00\x00\x00\x00\x00\x00\x00\x00\x00\x00\x00\x00\x00\x00\x00\x00\x00\x00\x00\x00\x00\x00\x00\x00\x00\x00\x00\x00\x00\x00\x00\x00\x00\x00\x00\x00\x00\x00\x00\x00\x00\x00\x00\x00\x00\x00\x00\x00\x00\x00\x00\x00\x00\x00\x00\x00\x00\x00\x00\x00\x00\x00\x00\x00\x00\x00\x00\x00\x00\x00\x00\x00\x00\x00\x00\x00\x00\x00\x00\x00\x00\x00\x00\x00\x00\x00\x00V\x00\x00\x00\x16#\xccAZINC03870277 -> k3 -> ZINC01532567 -> k1 -> ZINC03606137 -> k2 -> ZINC03870009 -> k4 -> ZINC30725161\x00\x00\x00\x00\x00\x00\x00\x00\x00\x00\x00\x00\x00\x00\x00\x00\x00\x00\x00\x00\x00\x00\x00\x00\x00\x00\x00\x00\x00\x00\x00\x00\x00\x00\x00\x00\x00\x00\x00\x00\x00\x00\x00\x00\x00\x00\x00\x00\x00\x00\x00\x00\x00\x00\x00\x00\x00\x00\x00\x00\x00\x00\x00\x00\x00\x00\x00\x00\x00\x00\x00\x00\x00\x00\x00\x00\x00\x00\x00\x00\x00\x00\x00\x00\x00\x00\x00\x00\x00\x00\x00\x00\x00\x00\x00\x00\x00\x00\x00\x00V\x00\x00\x00\xfc\x05\xc9AZINC01532567 -> k3 -> ZINC00895279 -> k1 -> ZINC18168715 -> k2 -> ZINC03870005 -> k4 -> ZINC08215638\x00\x00\x00\x00\x00\x00\x00\x00\x00\x00\x00\x00\x00\x00\x00\x00\x00\x00\x00\x00\x00\x00\x00\x00\x00\x00\x00\x00\x00\x00\x00\x00\x00\x00\x00\x00\x00\x00\x00\x00\x00\x00\x00\x00\x00\x00\x00\x00\x00\x00\x00\x00\x00\x00\x00\x00\x00\x00\x00\x00\x00\x00\x00\x00\x00\x00\x00\x00\x00\x00\x00\x00\x00\x00\x00\x00\x00\x00\x00\x00\x00\x00\x00\x00\x00\x00\x00\x00\x00\x00\x00\x00\x00\x00\x00\x00\x00\x00\x00\x00`\x00\x00\x00\x95\xd5\xcaAZINC01532567 -> k3 -> ZINC00902225 -> k1 -> ZINC18168715 -> k2 -> ZINC03870005 -> k4 -> ZINC08215638\x00\x00\x00\x00\x00\x00\x00\x00\x00\x00\x00\x00\x00\x00\x00\x00\x00\x00\x00\x00\x00\x00\x00\x00\x00\x00\x00\x00\x00\x00\x00\x00\x00\x00\x00\x00\x00\x00\x00\x00\x00\x00\x00\x00\x00\x00\x00\x00\x00\x00\x00\x00\x00\x00\x00\x00\x00\x00\x00\x00\x00\x00\x00\x00\x00\x00\x00\x00\x00\x00\x00\x00\x00\x00\x00\x00\x00\x00\x00\x00\x00\x00\x00\x00\x00\x00\x00\x00\x00\x00\x00\x00\x00\x00\x00\x00\x00\x00\x00\x00`\x00\x00\x00\x06\x1a\xd0AZINC01532567 -> k3 -> ZINC00902225 -> k1 -> ZINC18168715 -> k2 -> ZINC03870005 -> k4 -> ZINC30725157\x00\x00\x00\x00\x00\x00\x00\x00\x00\x00\x00\x00\x00\x00\x00\x00\x00\x00\x00\x00\x00\x00\x00\x00\x00\x00\x00\x00\x00\x00\x00\x00\x00\x00\x00\x00\x00\x00\x00\x00\x00\x00\x00\x00\x00\x00\x00\x00\x00\x00\x00\x00\x00\x00\x00\x00\x00\x00\x00\x00\x00\x00\x00\x00\x00\x00\x00\x00\x00\x00\x00\x00\x00\x00\x00\x00\x00\x00\x00\x00\x00\x00\x00\x00\x00\x00\x00\x00\x00\x00\x00\x00\x00\x00\x00\x00\x00\x00\x00\x00`\x00\x00\x00\xdf\xb2\xcaAZINC01532567 -> k3 -> ZINC00902225 -> k1 -> ZINC18168715 -> k2 -> ZINC03870005 -> k4 -> ZINC30320686\x00\x00\x00\x00\x00\x00\x00\x00\x00\x00\x00\x00\x00\x00\x00\x00\x00\x00\x00\x00\x00\x00\x00\x00\x00\x00\x00\x00\x00\x00\x00\x00\x00\x00\x00\x00\x00\x00\x00\x00\x00\x00\x00\x00\x00\x00\x00\x00\x00\x00\x00\x00\x00\x00\x00\x00\x00\x00\x00\x00\x00\x00\x00\x00\x00\x00\x00\x00\x00\x00\x00\x00\x00\x00\x00\x00\x00\x00\x00\x00\x00\x00\x00\x00\x00\x00\x00\x00\x00\x00\x00\x00\x00\x00\x00\x00\x00\x00\x00\x00`\x00\x00\x00\xe9@\xd0AZINC01532567 -> k3 -> ZINC00902225 -> k1 -> ZINC18168715 -> k2 -> ZINC03870005 -> k4 -> ZINC30725161\x00\x00\x00\x00\x00\x00\x00\x00\x00\x00\x00\x00\x00\x00\x00\x00\x00\x00\x00\x00\x00\x00\x00\x00\x00\x00\x00\x00\x00\x00\x00\x00\x00\x00\x00\x00\x00\x00\x00\x00\x00\x00\x00\x00\x00\x00\x00\x00\x00\x00\x00\x00\x00\x00\x00\x00\x00\x00\x00\x00\x00\x00\x00\x00\x00\x00\x00\x00\x00\x00\x00\x00\x00\x00\x00\x00\x00\x00\x00\x00\x00\x00\x00\x00\x00\x00\x00\x00\x00\x00\x00\x00\x00\x00\x00\x00\x00\x00\x00\x00`\x00\x00\x00\x98Z\xdaAZINC01532567 -> k3 -> ZINC00902225 -> k1 -> ZINC18168715 -> k2 -> ZINC02562361 -> k4 -> ZINC30725161\x00\x00\x00\x00\x00\x00\x00\x00\x00\x00\x00\x00\x00\x00\x00\x00\x00\x00\x00\x00\x00\x00\x00\x00\x00\x00\x00\x00\x00\x00\x00\x00\x00\x00\x00\x00\x00\x00\x00\x00\x00\x00\x00\x00\x00\x00\x00\x00\x00\x00\x00\x00\x00\x00\x00\x00\x00\x00\x00\x00\x00\x00\x00\x00\x00\x00\x00\x00\x00\x00\x00\x00\x00\x00\x00\x00\x00\x00\x00\x00\x00\x00\x00\x00\x00\x00\x00\x00\x00\x00\x00\x00\x00\x00\x00\x00\x00\x00\x00\x00`\x00\x00\x00\x00\x8b\xd8AZINC01532567 -> k3 -> ZINC00895279 -> k1 -> ZINC18168715 -> k2 -> ZINC02562361 -> k4 -> ZINC30725161\x00\x00\x00\x00\x00\x00\x00\x00\x00\x00\x00\x00\x00\x00\x00\x00\x00\x00\x00\x00\x00\x00\x00\x00\x00\x00\x00\x00\x00\x00\x00\x00\x00\x00\x00\x00\x00\x00\x00\x00\x00\x00\x00\x00\x00\x00\x00\x00\x00\x00\x00\x00\x00\x00\x00\x00\x00\x00\x00\x00\x00\x00\x00\x00\x00\x00\x00\x00\x00\x00\x00\x00\x00\x00\x00\x00\x00\x00\x00\x00\x00\x00\x00\x00\x00\x00\x00\x00\x00\x00\x00\x00\x00\x00\x00\x00\x00\x00\x00\x00`\x00\x00\x00\xb9\xc4\xdaAZINC01532567 -> k3 -> ZINC00902225 -> k1 -> ZINC18168715 -> k2 -> ZINC02562361 -> k4 -> ZINC30725157\x00\x00\x00\x00\x00\x00\x00\x00\x00\x00\x00\x00\x00\x00\x00\x00\x00\x00\x00\x00\x00\x00\x00\x00\x00\x00\x00\x00\x00\x00\x00\x00\x00\x00\x00\x00\x00\x00\x00\x00\x00\x00\x00\x00\x00\x00\x00\x00\x00\x00\x00\x00\x00\x00\x00\x00\x00\x00\x00\x00\x00\x00\x00\x00\x00\x00\x00\x00\x00\x00\x00\x00\x00\x00\x00\x00\x00\x00\x00\x00\x00\x00\x00\x00\x00\x00\x00\x00\x00\x00\x00\x00\x00\x00\x00\x00\x00\x00\x00\x00`\x00\x00\x00!\xf5\xd8AZINC01532567 -> k3 -> ZINC00895279 -> k1 -> ZINC18168715 -> k2 -> ZINC02562361 -> k4 -> ZINC30725157\x00\x00\x00\x00\x00\x00\x00\x00\x00\x00\x00\x00\x00\x00\x00\x00\x00\x00\x00\x00\x00\x00\x00\x00\x00\x00\x00\x00\x00\x00\x00\x00\x00\x00\x00\x00\x00\x00\x00\x00\x00\x00\x00\x00\x00\x00\x00\x00\x00\x00\x00\x00\x00\x00\x00\x00\x00\x00\x00\x00\x00\x00\x00\x00\x00\x00\x00\x00\x00\x00\x00\x00\x00\x00\x00\x00\x00\x00\x00\x00\x00\x00\x00\x00\x00\x00\x00\x00\x00\x00\x00\x00\x00\x00\x00\x00\x00\x00\x00\x00o\x00\x00\x00\xc9\x1e\xc9AZINC18140538 -> k3 -> ZINC01532049 -> k1 -> ZINC03830679 -> k2 -> ZINC02562361 -> k4 -> ZINC30725161\x00\x00\x00\x00\x00\x00\x00\x00\x00\x00\x00\x00\x00\x00\x00\x00\x00\x00\x00\x00\x00\x00\x00\x00\x00\x00\x00\x00\x00\x00\x00\x00\x00\x00\x00\x00\x00\x00\x00\x00\x00\x00\x00\x00\x00\x00\x00\x00\x00\x00\x00\x00\x00\x00\x00\x00\x00\x00\x00\x00\x00\x00\x00\x00\x00\x00\x00\x00\x00\x00\x00\x00\x00\x00\x00\x00\x00\x00\x00\x00\x00\x00\x00\x00\x00\x00\x00\x00\x00\x00\x00\x00\x00\x00\x00\x00\x00\x00\x00\x00y\x00\x00\x00\xf0\xe6\xc8AZINC18140538 -> k3 -> ZINC03830876 -> k1 -> ZINC03830679 -> k2 -> ZINC02562361 -> k4 -> ZINC30725161\x00\x00\x00\x00\x00\x00\x00\x00\x00\x00\x00\x00\x00\x00\x00\x00\x00\x00\x00\x00\x00\x00\x00\x00\x00\x00\x00\x00\x00\x00\x00\x00\x00\x00\x00\x00\x00\x00\x00\x00\x00\x00\x00\x00\x00\x00\x00\x00\x00\x00\x00\x00\x00\x00\x00\x00\x00\x00\x00\x00\x00\x00\x00\x00\x00\x00\x00\x00\x00\x00\x00\x00\x00\x00\x00\x00\x00\x00\x00\x00\x00\x00\x00\x00\x00\x00\x00\x00\x00\x00\x00\x00\x00\x00\x00\x00\x00\x00\x00\x00y\x00\x00\x00\xeb\x88\xc9AZINC18140538 -> k3 -> ZINC01532049 -> k1 -> ZINC03830679 -> k2 -> ZINC02562361 -> k4 -> ZINC30725157\x00\x00\x00\x00\x00\x00\x00\x00\x00\x00\x00\x00\x00\x00\x00\x00\x00\x00\x00\x00\x00\x00\x00\x00\x00\x00\x00\x00\x00\x00\x00\x00\x00\x00\x00\x00\x00\x00\x00\x00\x00\x00\x00\x00\x00\x00\x00\x00\x00\x00\x00\x00\x00\x00\x00\x00\x00\x00\x00\x00\x00\x00\x00\x00\x00\x00\x00\x00\x00\x00\x00\x00\x00\x00\x00\x00\x00\x00\x00\x00\x00\x00\x00\x00\x00\x00\x00\x00\x00\x00\x00\x00\x00\x00\x00\x00\x00\x00\x00\x00y\x00\x00\x00\x11Q\xc9AZINC18140538 -> k3 -> ZINC03830876 -> k1 -> ZINC03830679 -> k2 -> ZINC02562361 -> k4 -> ZINC30725157\x00\x00\x00\x00\x00\x00\x00\x00\x00\x00\x00\x00\x00\x00\x00\x00\x00\x00\x00\x00\x00\x00\x00\x00\x00\x00\x00\x00\x00\x00\x00\x00\x00\x00\x00\x00\x00\x00\x00\x00\x00\x00\x00\x00\x00\x00\x00\x00\x00\x00\x00\x00\x00\x00\x00\x00\x00\x00\x00\x00\x00\x00\x00\x00\x00\x00\x00\x00\x00\x00\x00\x00\x00\x00\x00\x00\x00\x00\x00\x00\x00\x00\x00\x00\x00\x00\x00\x00\x00\x00\x00\x00\x00\x00\x00\x00\x00\x00\x00\x00y\x00\x00\x00\x15O\xc9AZINC18140538 -> k3 -> ZINC03830876 -> k1 -> ZINC03860903 -> k2 -> ZINC02562361 -> k4 -> ZINC30725157\x00\x00\x00\x00\x00\x00\x00\x00\x00\x00\x00\x00\x00\x00\x00\x00\x00\x00\x00\x00\x00\x00\x00\x00\x00\x00\x00\x00\x00\x00\x00\x00\x00\x00\x00\x00\x00\x00\x00\x00\x00\x00\x00\x00\x00\x00\x00\x00\x00\x00\x00\x00\x00\x00\x00\x00\x00\x00\x00\x00\x00\x00\x00\x00\x00\x00\x00\x00\x00\x00\x00\x00\x00\x00\x00\x00\x00\x00\x00\x00\x00\x00\x00\x00\x00\x00\x00\x00\x00\x00\x00\x00\x00\x00\x00\x00\x00\x00\x00\x00y\x00\x00\x00\xee\x86\xc9AZINC18140538 -> k3 -> ZINC01532049 -> k1 -> ZINC03860903 -> k2 -> ZINC02562361 -> k4 -> ZINC30725157\x00\x00\x00\x00\x00\x00\x00\x00\x00\x00\x00\x00\x00\x00\x00\x00\x00\x00\x00\x00\x00\x00\x00\x00\x00\x00\x00\x00\x00\x00\x00\x00\x00\x00\x00\x00\x00\x00\x00\x00\x00\x00\x00\x00\x00\x00\x00\x00\x00\x00\x00\x00\x00\x00\x00\x00\x00\x00\x00\x00\x00\x00\x00\x00\x00\x00\x00\x00\x00\x00\x00\x00\x00\x00\x00\x00\x00\x00\x00\x00\x00\x00\x00\x00\x00\x00\x00\x00\x00\x00\x00\x00\x00\x00\x00\x00\x00\x00\x00\x00y\x00\x00\x00\xcd\x1c\xc9AZINC18140538 -> k3 -> ZINC01532049 -> k1 -> ZINC03860903 -> k2 -> ZINC02562361 -> k4 -> ZINC30725161\x00\x00\x00\x00\x00\x00\x00\x00\x00\x00\x00\x00\x00\x00\x00\x00\x00\x00\x00\x00\x00\x00\x00\x00\x00\x00\x00\x00\x00\x00\x00\x00\x00\x00\x00\x00\x00\x00\x00\x00\x00\x00\x00\x00\x00\x00\x00\x00\x00\x00\x00\x00\x00\x00\x00\x00\x00\x00\x00\x00\x00\x00\x00\x00\x00\x00\x00\x00\x00\x00\x00\x00\x00\x00\x00\x00\x00\x00\x00\x00\x00\x00\x00\x00\x00\x00\x00\x00\x00\x00\x00\x00\x00\x00\x00\x00\x00\x00\x00\x00y\x00\x00\x00`\x11\xc6AZINC04095539 -> k3 -> ZINC01532049 -> k1 -> ZINC03830679 -> k2 -> ZINC02562361 -> k4 -> ZINC30725157\x00\x00\x00\x00\x00\x00\x00\x00\x00\x00\x00\x00\x00\x00\x00\x00\x00\x00\x00\x00\x00\x00\x00\x00\x00\x00\x00\x00\x00\x00\x00\x00\x00\x00\x00\x00\x00\x00\x00\x00\x00\x00\x00\x00\x00\x00\x00\x00\x00\x00\x00\x00\x00\x00\x00\x00\x00\x00\x00\x00\x00\x00\x00\x00\x00\x00\x00\x00\x00\x00\x00\x00\x00\x00\x00\x00\x00\x00\x00\x00\x00\x00\x00\x00\x00\x00\x00\x00\x00\x00\x00\x00\x00\x00\x00\x00\x00\x00\x00\x00\xbd\x00\x00\x00\xf4\xe4\xc8AZINC18140538 -> k3 -> ZINC03830876 -> k1 -> ZINC03860903 -> k2 -> ZINC02562361 -> k4 -> ZINC30725161\x00\x00\x00\x00\x00\x00\x00\x00\x00\x00\x00\x00\x00\x00\x00\x00\x00\x00\x00\x00\x00\x00\x00\x00\x00\x00\x00\x00\x00\x00\x00\x00\x00\x00\x00\x00\x00\x00\x00\x00\x00\x00\x00\x00\x00\x00\x00\x00\x00\x00\x00\x00\x00\x00\x00\x00\x00\x00\x00\x00\x00\x00\x00\x00\x00\x00\x00\x00\x00\x00\x00\x00\x00\x00\x00\x00\x00\x00\x00\x00\x00\x00\x00\x00\x00\x00\x00\x00\x00\x00\x00\x00\x00\x00\x00\x00\x00\x00\x00\x00\xbd\x00\x00\x00=\x15\xc6AZINC04096690 -> k3 -> ZINC01532049 -> k1 -> ZINC03860903 -> k2 -> ZINC02562361 -> k4 -> ZINC30725157\x00\x00\x00\x00\x00\x00\x00\x00\x00\x00\x00\x00\x00\x00\x00\x00\x00\x00\x00\x00\x00\x00\x00\x00\x00\x00\x00\x00\x00\x00\x00\x00\x00\x00\x00\x00\x00\x00\x00\x00\x00\x00\x00\x00\x00\x00\x00\x00\x00\x00\x00\x00\x00\x00\x00\x00\x00\x00\x00\x00\x00\x00\x00\x00\x00\x00\x00\x00\x00\x00\x00\x00\x00\x00\x00\x00\x00\x00\x00\x00\x00\x00\x00\x00\x00\x00\x00\x00\x00\x00\x00\x00\x00\x00\x00\x00\x00\x00\x00\x00\xbd\x00\x00\x00d\x0f\xc6AZINC04095539 -> k3 -> ZINC01532049 -> k1 -> ZINC03860903 -> k2 -> ZINC02562361 -> k4 -> ZINC30725157\x00\x00\x00\x00\x00\x00\x00\x00\x00\x00\x00\x00\x00\x00\x00\x00\x00\x00\x00\x00\x00\x00\x00\x00\x00\x00\x00\x00\x00\x00\x00\x00\x00\x00\x00\x00\x00\x00\x00\x00\x00\x00\x00\x00\x00\x00\x00\x00\x00\x00\x00\x00\x00\x00\x00\x00\x00\x00\x00\x00\x00\x00\x00\x00\x00\x00\x00\x00\x00\x00\x00\x00\x00\x00\x00\x00\x00\x00\x00\x00\x00\x00\x00\x00\x00\x00\x00\x00\x00\x00\x00\x00\x00\x00\x00\x00\x00\x00\x00\x00c\x01\x00\x00\x86c\xcdAZINC01532567 -> k1 -> ZINC03606137 -> k3 -> ZINC18168715 -> k2 -> ZINC03870005 -> k4 -> ZINC30725161\x00\x00\x00\x00\x00\x00\x00\x00\x00\x00\x00\x00\x00\x00\x00\x00\x00\x00\x00\x00\x00\x00\x00\x00\x00\x00\x00\x00\x00\x00\x00\x00\x00\x00\x00\x00\x00\x00\x00\x00\x00\x00\x00\x00\x00\x00\x00\x00\x00\x00\x00\x00\x00\x00\x00\x00\x00\x00\x00\x00\x00\x00\x00\x00\x00\x00\x00\x00\x00\x00\x00\x00\x00\x00\x00\x00\x00\x00\x00\x00\x00\x00\x00\x00\x00\x00\x00\x00\x00\x00\x00\x00\x00\x00\x00\x00\x00\x00\x00\x00\x90\x01\x00\x00\xa3<\xcdAZINC01532567 -> k1 -> ZINC03606137 -> k3 -> ZINC18168715 -> k2 -> ZINC03870005 -> k4 -> ZINC30725157\x00\x00\x00\x00\x00\x00\x00\x00\x00\x00\x00\x00\x00\x00\x00\x00\x00\x00\x00\x00\x00\x00\x00\x00\x00\x00\x00\x00\x00\x00\x00\x00\x00\x00\x00\x00\x00\x00\x00\x00\x00\x00\x00\x00\x00\x00\x00\x00\x00\x00\x00\x00\x00\x00\x00\x00\x00\x00\x00\x00\x00\x00\x00\x00\x00\x00\x00\x00\x00\x00\x00\x00\x00\x00\x00\x00\x00\x00\x00\x00\x00\x00\x00\x00\x00\x00\x00\x00\x00\x00\x00\x00\x00\x00\x00\x00\x00\x00\x00\x00\xe2\x01\x00\x00nJ\xceAZINC01532567 -> k3 -> ZINC00895279 -> k1 -> ZINC18168715 -> k2 -> ZINC03870005 -> k4 -> ZINC30725157\x00\x00\x00\x00\x00\x00\x00\x00\x00\x00\x00\x00\x00\x00\x00\x00\x00\x00\x00\x00\x00\x00\x00\x00\x00\x00\x00\x00\x00\x00\x00\x00\x00\x00\x00\x00\x00\x00\x00\x00\x00\x00\x00\x00\x00\x00\x00\x00\x00\x00\x00\x00\x00\x00\x00\x00\x00\x00\x00\x00\x00\x00\x00\x00\x00\x00\x00\x00\x00\x00\x00\x00\x00\x00\x00\x00\x00\x00\x00\x00\x00\x00\x00\x00\x00\x00\x00\x00\x00\x00\x00\x00\x00\x00\x00\x00\x00\x00\x00\x00\x00\x02\x00\x00Pq\xceAZINC01532567 -> k3 -> ZINC00895279 -> k1 -> ZINC18168715 -> k2 -> ZINC03870005 -> k4 -> ZINC30725161\x00\x00\x00\x00\x00\x00\x00\x00\x00\x00\x00\x00\x00\x00\x00\x00\x00\x00\x00\x00\x00\x00\x00\x00\x00\x00\x00\x00\x00\x00\x00\x00\x00\x00\x00\x00\x00\x00\x00\x00\x00\x00\x00\x00\x00\x00\x00\x00\x00\x00\x00\x00\x00\x00\x00\x00\x00\x00\x00\x00\x00\x00\x00\x00\x00\x00\x00\x00\x00\x00\x00\x00\x00\x00\x00\x00\x00\x00\x00\x00\x00\x00\x00\x00\x00\x00\x00\x00\x00\x00\x00\x00\x00\x00\x00\x00\x00\x00\x00\x00\x00\x02\x00\x00\xa7\x86\xd4AZINC01532567 -> k1 -> ZINC03606137 -> k2 -> ZINC03870009 -> k3 -> ZINC02562361 -> k4 -> ZINC30725161\x00\x00\x00\x00\x00\x00\x00\x00\x00\x00\x00\x00\x00\x00\x00\x00\x00\x00\x00\x00\x00\x00\x00\x00\x00\x00\x00\x00\x00\x00\x00\x00\x00\x00\x00\x00\x00\x00\x00\x00\x00\x00\x00\x00\x00\x00\x00\x00\x00\x00\x00\x00\x00\x00\x00\x00\x00\x00\x00\x00\x00\x00\x00\x00\x00\x00\x00\x00\x00\x00\x00\x00\x00\x00\x00\x00\x00\x00\x00\x00\x00\x00\x00\x00\x00\x00\x00\x00\x00\x00\x00\x00\x00\x00\x00\x00\x00\x00\x00\x00\x13\x02\x00\x00\xc8\xf0\xd4AZINC01532567 -> k1 -> ZINC03606137 -> k2 -> ZINC03870009 -> k3 -> ZINC02562361 -> k4 -> ZINC30725157\x00\x00\x00\x00\x00\x00\x00\x00\x00\x00\x00\x00\x00\x00\x00\x00\x00\x00\x00\x00\x00\x00\x00\x00\x00\x00\x00\x00\x00\x00\x00\x00\x00\x00\x00\x00\x00\x00\x00\x00\x00\x00\x00\x00\x00\x00\x00\x00\x00\x00\x00\x00\x00\x00\x00\x00\x00\x00\x00\x00\x00\x00\x00\x00\x00\x00\x00\x00\x00\x00\x00\x00\x00\x00\x00\x00\x00\x00\x00\x00\x00\x00\x00\x00\x00\x00\x00\x00\x00\x00\x00\x00\x00\x00\x00\x00\x00\x00\x00\x00\x13\x02\x00\x00:\x17\xc6AZINC04096690 -> k3 -> ZINC01532049 -> k1 -> ZINC03830679 -> k2 -> ZINC02562361 -> k4 -> ZINC30725157\x00\x00\x00\x00\x00\x00\x00\x00\x00\x00\x00\x00\x00\x00\x00\x00\x00\x00\x00\x00\x00\x00\x00\x00\x00\x00\x00\x00\x00\x00\x00\x00\x00\x00\x00\x00\x00\x00\x00\x00\x00\x00\x00\x00\x00\x00\x00\x00\x00\x00\x00\x00\x00\x00\x00\x00\x00\x00\x00\x00\x00\x00\x00\x00\x00\x00\x00\x00\x00\x00\x00\x00\x00\x00\x00\x00\x00\x00\x00\x00\x00\x00\x00\x00\x00\x00\x00\x00\x00\x00\x00\x00\x00\x00\x00\x00\x00\x00\x00\x00}\x02\x00\x00|\xd5\xc7AZINC01532567 -> k1 -> ZINC03606137 -> k3 -> ZINC18168715 -> k2 -> ZINC03870005 -> k4 -> ZINC30320686\x00\x00\x00\x00\x00\x00\x00\x00\x00\x00\x00\x00\x00\x00\x00\x00\x00\x00\x00\x00\x00\x00\x00\x00\x00\x00\x00\x00\x00\x00\x00\x00\x00\x00\x00\x00\x00\x00\x00\x00\x00\x00\x00\x00\x00\x00\x00\x00\x00\x00\x00\x00\x00\x00\x00\x00\x00\x00\x00\x00\x00\x00\x00\x00\x00\x00\x00\x00\x00\x00\x00\x00\x00\x00\x00\x00\x00\x00\x00\x00\x00\x00\x00\x00\x00\x00\x00\x00\x00\x00\x00\x00\x00\x00\x00\x00\x00\x00\x00\x00\x8f\x02\x00\x001\xf8\xc7AZINC01532567 -> k1 -> ZINC03606137 -> k3 -> ZINC18168715 -> k2 -> ZINC03870005 -> k4 -> ZINC08215638\x00\x00\x00\x00\x00\x00\x00\x00\x00\x00\x00\x00\x00\x00\x00\x00\x00\x00\x00\x00\x00\x00\x00\x00\x00\x00\x00\x00\x00\x00\x00\x00\x00\x00\x00\x00\x00\x00\x00\x00\x00\x00\x00\x00\x00\x00\x00\x00\x00\x00\x00\x00\x00\x00\x00\x00\x00\x00\x00\x00\x00\x00\x00\x00\x00\x00\x00\x00\x00\x00\x00\x00\x00\x00\x00\x00\x00\x00\x00\x00\x00\x00\x00\x00\x00\x00\x00\x00\x00\x00\x00\x00\x00\x00\x00\x00\x00\x00\x00\x00\x8f\x02\x00\x00;\xf9\xc6AZINC03869934 -> k3 -> ZINC00895140 -> s1 -> ZINC01532558 -> k1 -> ZINC00895511 -> k2 -> ZINC01529791\x00\x00\x00\x00\x00\x00\x00\x00\x00\x00\x00\x00\x00\x00\x00\x00\x00\x00\x00\x00\x00\x00\x00\x00\x00\x00\x00\x00\x00\x00\x00\x00\x00\x00\x00\x00\x00\x00\x00\x00\x00\x00\x00\x00\x00\x00\x00\x00\x00\x00\x00\x00\x00\x00\x00\x00\x00\x00\x00\x00\x00\x00\x00\x00\x00\x00\x00\x00\x00\x00\x00\x00\x00\x00\x00\x00\x00\x00\x00\x00\x00\x00\x00\x00\x00\x00\x00\x00\x00\x00\x00\x00\x00\x00\x00\x00\x00\x00\x00\x00\xfd\x03\x00\x00\xdeS\xc9AZINC03869936 -> k2 -> ZINC01529165 -> k3 -> ZINC01532568 -> s1 -> ZINC01529927 -> k1 -> ZINC01529842\x00\x00\x00\x00\x00\x00\x00\x00\x00\x00\x00\x00\x00\x00\x00\x00\x00\x00\x00\x00\x00\x00\x00\x00\x00\x00\x00\x00\x00\x00\x00\x00\x00\x00\x00\x00\x00\x00\x00\x00\x00\x00\x00\x00\x00\x00\x00\x00\x00\x00\x00\x00\x00\x00\x00\x00\x00\x00\x00\x00\x00\x00\x00\x00\x00\x00\x00\x00\x00\x00\x00\x00\x00\x00\x00\x00\x00\x00\x00\x00\x00\x00\x00\x00\x00\x00\x00\x00\x00\x00\x00\x00\x00\x00\x00\x00\x00\x00\x00\x00\x03\x05\x00\x00K9\xc9AZINC03869936 -> k2 -> ZINC01529165 -> k3 -> ZINC01532568 -> s1 -> ZINC01529842 -> k1 -> ZINC01529927\x00\x00\x00\x00\x00\x00\x00\x00\x00\x00\x00\x00\x00\x00\x00\x00\x00\x00\x00\x00\x00\x00\x00\x00\x00\x00\x00\x00\x00\x00\x00\x00\x00\x00\x00\x00\x00\x00\x00\x00\x00\x00\x00\x00\x00\x00\x00\x00\x00\x00\x00\x00\x00\x00\x00\x00\x00\x00\x00\x00\x00\x00\x00\x00\x00\x00\x00\x00\x00\x00\x00\x00\x00\x00\x00\x00\x00\x00\x00\x00\x00\x00\x00\x00\x00\x00\x00\x00\x00\x00\x00\x00\x00\x00\x00\x00\x00\x00\x00\x00\x03\x05\x00\x00\xc1P\xc9AZINC03869936 -> k2 -> ZINC01529165 -> k3 -> ZINC01532568 -> s1 -> ZINC01529927 -> k1 -> ZINC01529844\x00\x00\x00\x00\x00\x00\x00\x00\x00\x00\x00\x00\x00\x00\x00\x00\x00\x00\x00\x00\x00\x00\x00\x00\x00\x00\x00\x00\x00\x00\x00\x00\x00\x00\x00\x00\x00\x00\x00\x00\x00\x00\x00\x00\x00\x00\x00\x00\x00\x00\x00\x00\x00\x00\x00\x00\x00\x00\x00\x00\x00\x00\x00\x00\x00\x00\x00\x00\x00\x00\x00\x00\x00\x00\x00\x00\x00\x00\x00\x00\x00\x00\x00\x00\x00\x00\x00\x00\x00\x00\x00\x00\x00\x00\x00\x00\x00\x00\x00\x00\x03\x05\x00\x00'
p46
tp47
bsS'conv_test_stds'
p48
NsS'pathdict'
p49
(dp50
I1
(lp51
sI2
(lp52
sI3
(lp53
sI4
(lp54
sI5
(lp55
sI6
(lp56
sI7
(lp57
sI8
(lp58
sI9
(lp59
(lp60
S'ZINC56874962'
p61
aS'k1'
p62
aS'ZINC03606137'
p63
aS'k3'
p64
aS'ZINC18168715'
p65
aS'k2'
p66
aS'ZINC02562361'
p67
aS'k4'
p68
aS'ZINC30725157'
p69
aa(lp70
S'ZINC01532567'
p71
aS'k1'
p72
aS'ZINC03606137'
p73
aS'k3'
p74
aS'ZINC18168715'
p75
aS'k2'
p76
aS'ZINC02562361'
p77
aS'k4'
p78
aS'ZINC30725157'
p79
aa(lp80
S'ZINC01532567'
p81
aS'k1'
p82
aS'ZINC03606137'
p83
aS'k3'
p84
aS'ZINC18168715'
p85
aS'k2'
p86
aS'ZINC02562361'
p87
aS'k4'
p88
aS'ZINC30725161'
p89
aasI10
(lp90
sI11
(lp91
sI12
(lp92
sI13
(lp93
sI14
(lp94
sI15
(lp95
sI16
(lp96
sI17
(lp97
sI18
(lp98
sI19
(lp99
sI20
(lp100
sI21
(lp101
sI22
(lp102
sI23
(lp103
sI24
(lp104
sI25
(lp105
sI26
(lp106
(lp107
S'ZINC56874962'
p108
aS'k1'
p109
aS'ZINC03606137'
p110
aS'k3'
p111
aS'ZINC18168715'
p112
aS'k2'
p113
aS'ZINC02562361'
p114
aS'k4'
p115
aS'ZINC30725157'
p116
aa(lp117
S'ZINC56874962'
p118
aS'k1'
p119
aS'ZINC03606137'
p120
aS'k3'
p121
aS'ZINC18168715'
p122
aS'k2'
p123
aS'ZINC02562361'
p124
aS'k4'
p125
aS'ZINC30725161'
p126
aa(lp127
S'ZINC01532567'
p128
aS'k1'
p129
aS'ZINC03606137'
p130
aS'k3'
p131
aS'ZINC18168715'
p132
aS'k2'
p133
aS'ZINC02562361'
p134
aS'k4'
p135
aS'ZINC30725157'
p136
aa(lp137
S'ZINC01532567'
p138
aS'k1'
p139
aS'ZINC03606137'
p140
aS'k3'
p141
aS'ZINC18168715'
p142
aS'k2'
p143
aS'ZINC02562361'
p144
aS'k4'
p145
aS'ZINC30725161'
p146
aasI27
(lp147
sI28
(lp148
sI29
(lp149
sI30
(lp150
sI31
(lp151
sI32
(lp152
sI33
(lp153
sI34
(lp154
sI35
(lp155
sI36
(lp156
sI37
(lp157
sI38
(lp158
sI39
(lp159
sI40
(lp160
sI41
(lp161
sI42
(lp162
sI43
(lp163
sI44
(lp164
sI45
(lp165
sI46
(lp166
sI47
(lp167
sI48
(lp168
sI49
(lp169
(lp170
S'ZINC01532567'
p171
aS'k1'
p172
aS'ZINC03606137'
p173
aS'k3'
p174
aS'ZINC18168715'
p175
aS'k2'
p176
aS'ZINC02562361'
p177
aS'k4'
p178
aS'ZINC30725161'
p179
aa(lp180
S'ZINC01532567'
p181
aS'k1'
p182
aS'ZINC03606137'
p183
aS'k3'
p184
aS'ZINC18168715'
p185
aS'k2'
p186
aS'ZINC02562361'
p187
aS'k4'
p188
aS'ZINC30725157'
p189
aasI50
(lp190
sI51
(lp191
sI52
(lp192
sI53
(lp193
sI54
(lp194
sI55
(lp195
sI56
(lp196
sI57
(lp197
sI58
(lp198
sI59
(lp199
sI60
(lp200
sI61
(lp201
sI62
(lp202
sI63
(lp203
sI64
(lp204
sI65
(lp205
sI66
(lp206
sI67
(lp207
sI68
(lp208
sI69
(lp209
sI70
(lp210
sI71
(lp211
sI72
(lp212
sI73
(lp213
sI74
(lp214
sI75
(lp215
sI76
(lp216
sI77
(lp217
sI78
(lp218
sI79
(lp219
sI80
(lp220
sI81
(lp221
sI82
(lp222
sI83
(lp223
sI84
(lp224
sI85
(lp225
sI86
(lp226
(lp227
S'ZINC03870277'
p228
aS'k3'
p229
aS'ZINC01532567'
p230
aS'k1'
p231
aS'ZINC03606137'
p232
aS'k2'
p233
aS'ZINC03870009'
p234
aS'k4'
p235
aS'ZINC30725157'
p236
aa(lp237
S'ZINC03870277'
p238
aS'k3'
p239
aS'ZINC01532567'
p240
aS'k1'
p241
aS'ZINC03606137'
p242
aS'k2'
p243
aS'ZINC03870009'
p244
aS'k4'
p245
aS'ZINC30725161'
p246
aasI87
(lp247
sI88
(lp248
sI89
(lp249
sI90
(lp250
sI91
(lp251
sI92
(lp252
sI93
(lp253
sI94
(lp254
sI95
(lp255
sI96
(lp256
(lp257
S'ZINC01532567'
p258
aS'k3'
p259
aS'ZINC00895279'
p260
aS'k1'
p261
aS'ZINC18168715'
p262
aS'k2'
p263
aS'ZINC03870005'
p264
aS'k4'
p265
aS'ZINC08215638'
p266
aa(lp267
S'ZINC01532567'
p268
aS'k3'
p269
aS'ZINC00902225'
p270
aS'k1'
p271
aS'ZINC18168715'
p272
aS'k2'
p273
aS'ZINC03870005'
p274
aS'k4'
p275
aS'ZINC08215638'
p276
aa(lp277
S'ZINC01532567'
p278
aS'k3'
p279
aS'ZINC00902225'
p280
aS'k1'
p281
aS'ZINC18168715'
p282
aS'k2'
p283
aS'ZINC03870005'
p284
aS'k4'
p285
aS'ZINC30725157'
p286
aa(lp287
S'ZINC01532567'
p288
aS'k3'
p289
aS'ZINC00902225'
p290
aS'k1'
p291
aS'ZINC18168715'
p292
aS'k2'
p293
aS'ZINC03870005'
p294
aS'k4'
p295
aS'ZINC30320686'
p296
aa(lp297
S'ZINC01532567'
p298
aS'k3'
p299
aS'ZINC00902225'
p300
aS'k1'
p301
aS'ZINC18168715'
p302
aS'k2'
p303
aS'ZINC03870005'
p304
aS'k4'
p305
aS'ZINC30725161'
p306
aa(lp307
S'ZINC01532567'
p308
aS'k3'
p309
aS'ZINC00902225'
p310
aS'k1'
p311
aS'ZINC18168715'
p312
aS'k2'
p313
aS'ZINC02562361'
p314
aS'k4'
p315
aS'ZINC30725161'
p316
aa(lp317
S'ZINC01532567'
p318
aS'k3'
p319
aS'ZINC00895279'
p320
aS'k1'
p321
aS'ZINC18168715'
p322
aS'k2'
p323
aS'ZINC02562361'
p324
aS'k4'
p325
aS'ZINC30725161'
p326
aa(lp327
S'ZINC01532567'
p328
aS'k3'
p329
aS'ZINC00902225'
p330
aS'k1'
p331
aS'ZINC18168715'
p332
aS'k2'
p333
aS'ZINC02562361'
p334
aS'k4'
p335
aS'ZINC30725157'
p336
aasI97
(lp337
sI98
(lp338
sI99
(lp339
sI100
(lp340
sI101
(lp341
(lp342
S'ZINC03870277'
p343
aS'k3'
p344
aS'ZINC01532567'
p345
aS'k1'
p346
aS'ZINC03606137'
p347
aS'k2'
p348
aS'ZINC03870009'
p349
aS'k4'
p350
aS'ZINC30725161'
p351
aa(lp352
S'ZINC03870277'
p353
aS'k3'
p354
aS'ZINC01532567'
p355
aS'k1'
p356
aS'ZINC03606137'
p357
aS'k2'
p358
aS'ZINC03870009'
p359
aS'k4'
p360
aS'ZINC30725157'
p361
aasI102
(lp362
sI103
(lp363
sI104
(lp364
sI105
(lp365
sI106
(lp366
sI107
(lp367
sI108
(lp368
sI109
(lp369
sI110
(lp370
sI111
(lp371
(lp372
S'ZINC01532567'
p373
aS'k3'
p374
aS'ZINC00895279'
p375
aS'k1'
p376
aS'ZINC18168715'
p377
aS'k2'
p378
aS'ZINC02562361'
p379
aS'k4'
p380
aS'ZINC30725161'
p381
aa(lp382
S'ZINC01532567'
p383
aS'k3'
p384
aS'ZINC00895279'
p385
aS'k1'
p386
aS'ZINC18168715'
p387
aS'k2'
p388
aS'ZINC02562361'
p389
aS'k4'
p390
aS'ZINC30725157'
p391
aa(lp392
S'ZINC01532567'
p393
aS'k3'
p394
aS'ZINC00902225'
p395
aS'k1'
p396
aS'ZINC18168715'
p397
aS'k2'
p398
aS'ZINC02562361'
p399
aS'k4'
p400
aS'ZINC30725161'
p401
aa(lp402
S'ZINC01532567'
p403
aS'k3'
p404
aS'ZINC00902225'
p405
aS'k1'
p406
aS'ZINC18168715'
p407
aS'k2'
p408
aS'ZINC02562361'
p409
aS'k4'
p410
aS'ZINC30725157'
p411
aasI112
(lp412
sI113
(lp413
sI114
(lp414
sI115
(lp415
sI116
(lp416
sI117
(lp417
sI118
(lp418
sI119
(lp419
sI120
(lp420
sI121
(lp421
(lp422
S'ZINC18140538'
p423
aS'k3'
p424
aS'ZINC01532049'
p425
aS'k1'
p426
aS'ZINC03830679'
p427
aS'k2'
p428
aS'ZINC02562361'
p429
aS'k4'
p430
aS'ZINC30725161'
p431
aa(lp432
S'ZINC18140538'
p433
aS'k3'
p434
aS'ZINC03830876'
p435
aS'k1'
p436
aS'ZINC03830679'
p437
aS'k2'
p438
aS'ZINC02562361'
p439
aS'k4'
p440
aS'ZINC30725161'
p441
aa(lp442
S'ZINC18140538'
p443
aS'k3'
p444
aS'ZINC01532049'
p445
aS'k1'
p446
aS'ZINC03830679'
p447
aS'k2'
p448
aS'ZINC02562361'
p449
aS'k4'
p450
aS'ZINC30725157'
p451
aa(lp452
S'ZINC18140538'
p453
aS'k3'
p454
aS'ZINC03830876'
p455
aS'k1'
p456
aS'ZINC03830679'
p457
aS'k2'
p458
aS'ZINC02562361'
p459
aS'k4'
p460
aS'ZINC30725157'
p461
aa(lp462
S'ZINC18140538'
p463
aS'k3'
p464
aS'ZINC03830876'
p465
aS'k1'
p466
aS'ZINC03860903'
p467
aS'k2'
p468
aS'ZINC02562361'
p469
aS'k4'
p470
aS'ZINC30725157'
p471
aa(lp472
S'ZINC18140538'
p473
aS'k3'
p474
aS'ZINC01532049'
p475
aS'k1'
p476
aS'ZINC03860903'
p477
aS'k2'
p478
aS'ZINC02562361'
p479
aS'k4'
p480
aS'ZINC30725157'
p481
aa(lp482
S'ZINC18140538'
p483
aS'k3'
p484
aS'ZINC01532049'
p485
aS'k1'
p486
aS'ZINC03860903'
p487
aS'k2'
p488
aS'ZINC02562361'
p489
aS'k4'
p490
aS'ZINC30725161'
p491
aasI122
(lp492
sI123
(lp493
sI124
(lp494
sI125
(lp495
sI126
(lp496
sI127
(lp497
sI128
(lp498
sI129
(lp499
sI130
(lp500
sI131
(lp501
sI132
(lp502
sI133
(lp503
sI134
(lp504
sI135
(lp505
sI136
(lp506
sI137
(lp507
sI138
(lp508
sI139
(lp509
sI140
(lp510
sI141
(lp511
sI142
(lp512
sI143
(lp513
sI144
(lp514
sI145
(lp515
sI146
(lp516
sI147
(lp517
sI148
(lp518
sI149
(lp519
sI150
(lp520
sI151
(lp521
sI152
(lp522
sI153
(lp523
sI154
(lp524
sI155
(lp525
sI156
(lp526
sI157
(lp527
sI158
(lp528
sI159
(lp529
sI160
(lp530
sI161
(lp531
sI162
(lp532
sI163
(lp533
sI164
(lp534
sI165
(lp535
sI166
(lp536
sI167
(lp537
sI168
(lp538
(lp539
S'ZINC03870277'
p540
aS'k3'
p541
aS'ZINC01532567'
p542
aS'k1'
p543
aS'ZINC03606137'
p544
aS'k2'
p545
aS'ZINC03870009'
p546
aS'k4'
p547
aS'ZINC30725161'
p548
aa(lp549
S'ZINC03870277'
p550
aS'k3'
p551
aS'ZINC01532567'
p552
aS'k1'
p553
aS'ZINC03606137'
p554
aS'k2'
p555
aS'ZINC03870009'
p556
aS'k4'
p557
aS'ZINC30725157'
p558
aasI169
(lp559
sI170
(lp560
sI171
(lp561
sI172
(lp562
sI173
(lp563
sI174
(lp564
sI175
(lp565
sI176
(lp566
sI177
(lp567
sI178
(lp568
sI179
(lp569
(lp570
S'ZINC56874962'
p571
aS'k1'
p572
aS'ZINC03606137'
p573
aS'k3'
p574
aS'ZINC18168715'
p575
aS'k2'
p576
aS'ZINC02562361'
p577
aS'k4'
p578
aS'ZINC30725157'
p579
aa(lp580
S'ZINC56874962'
p581
aS'k1'
p582
aS'ZINC03606137'
p583
aS'k3'
p584
aS'ZINC18168715'
p585
aS'k2'
p586
aS'ZINC02562361'
p587
aS'k4'
p588
aS'ZINC30725161'
p589
aasI180
(lp590
sI181
(lp591
sI182
(lp592
sI183
(lp593
sI184
(lp594
(lp595
S'ZINC01532567'
p596
aS'k1'
p597
aS'ZINC03606137'
p598
aS'k3'
p599
aS'ZINC18168715'
p600
aS'k2'
p601
aS'ZINC02562361'
p602
aS'k4'
p603
aS'ZINC30725161'
p604
aa(lp605
S'ZINC01532567'
p606
aS'k1'
p607
aS'ZINC03606137'
p608
aS'k3'
p609
aS'ZINC18168715'
p610
aS'k2'
p611
aS'ZINC02562361'
p612
aS'k4'
p613
aS'ZINC30725157'
p614
aasI185
(lp615
sI186
(lp616
sI187
(lp617
sI188
(lp618
sI189
(lp619
(lp620
S'ZINC18140538'
p621
aS'k3'
p622
aS'ZINC01532049'
p623
aS'k1'
p624
aS'ZINC03860903'
p625
aS'k2'
p626
aS'ZINC02562361'
p627
aS'k4'
p628
aS'ZINC30725157'
p629
aa(lp630
S'ZINC18140538'
p631
aS'k3'
p632
aS'ZINC01532049'
p633
aS'k1'
p634
aS'ZINC03830679'
p635
aS'k2'
p636
aS'ZINC02562361'
p637
aS'k4'
p638
aS'ZINC30725157'
p639
aa(lp640
S'ZINC18140538'
p641
aS'k3'
p642
aS'ZINC01532049'
p643
aS'k1'
p644
aS'ZINC03830679'
p645
aS'k2'
p646
aS'ZINC02562361'
p647
aS'k4'
p648
aS'ZINC30725161'
p649
aa(lp650
S'ZINC18140538'
p651
aS'k3'
p652
aS'ZINC03830876'
p653
aS'k1'
p654
aS'ZINC03830679'
p655
aS'k2'
p656
aS'ZINC02562361'
p657
aS'k4'
p658
aS'ZINC30725157'
p659
aa(lp660
S'ZINC04095539'
p661
aS'k3'
p662
aS'ZINC01532049'
p663
aS'k1'
p664
aS'ZINC03830679'
p665
aS'k2'
p666
aS'ZINC02562361'
p667
aS'k4'
p668
aS'ZINC30725157'
p669
aa(lp670
S'ZINC18140538'
p671
aS'k3'
p672
aS'ZINC03830876'
p673
aS'k1'
p674
aS'ZINC03860903'
p675
aS'k2'
p676
aS'ZINC02562361'
p677
aS'k4'
p678
aS'ZINC30725161'
p679
aa(lp680
S'ZINC18140538'
p681
aS'k3'
p682
aS'ZINC03830876'
p683
aS'k1'
p684
aS'ZINC03860903'
p685
aS'k2'
p686
aS'ZINC02562361'
p687
aS'k4'
p688
aS'ZINC30725157'
p689
aa(lp690
S'ZINC04096690'
p691
aS'k3'
p692
aS'ZINC01532049'
p693
aS'k1'
p694
aS'ZINC03860903'
p695
aS'k2'
p696
aS'ZINC02562361'
p697
aS'k4'
p698
aS'ZINC30725157'
p699
aa(lp700
S'ZINC18140538'
p701
aS'k3'
p702
aS'ZINC01532049'
p703
aS'k1'
p704
aS'ZINC03860903'
p705
aS'k2'
p706
aS'ZINC02562361'
p707
aS'k4'
p708
aS'ZINC30725161'
p709
aasI190
(lp710
sI191
(lp711
sI192
(lp712
sI193
(lp713
sI194
(lp714
sI195
(lp715
(lp716
S'ZINC01532567'
p717
aS'k3'
p718
aS'ZINC00902225'
p719
aS'k1'
p720
aS'ZINC18168715'
p721
aS'k2'
p722
aS'ZINC03870005'
p723
aS'k4'
p724
aS'ZINC30725161'
p725
aa(lp726
S'ZINC01532567'
p727
aS'k3'
p728
aS'ZINC00902225'
p729
aS'k1'
p730
aS'ZINC18168715'
p731
aS'k2'
p732
aS'ZINC02562361'
p733
aS'k4'
p734
aS'ZINC30725161'
p735
aa(lp736
S'ZINC01532567'
p737
aS'k3'
p738
aS'ZINC00902225'
p739
aS'k1'
p740
aS'ZINC18168715'
p741
aS'k2'
p742
aS'ZINC02562361'
p743
aS'k4'
p744
aS'ZINC30725157'
p745
aa(lp746
S'ZINC01532567'
p747
aS'k3'
p748
aS'ZINC00895279'
p749
aS'k1'
p750
aS'ZINC18168715'
p751
aS'k2'
p752
aS'ZINC02562361'
p753
aS'k4'
p754
aS'ZINC30725161'
p755
aa(lp756
S'ZINC01532567'
p757
aS'k3'
p758
aS'ZINC00895279'
p759
aS'k1'
p760
aS'ZINC18168715'
p761
aS'k2'
p762
aS'ZINC02562361'
p763
aS'k4'
p764
aS'ZINC30725157'
p765
aasI196
(lp766
sI197
(lp767
sI198
(lp768
sI199
(lp769
sI200
(lp770
sI201
(lp771
sI202
(lp772
sI203
(lp773
sI204
(lp774
sI205
(lp775
sI206
(lp776
sI207
(lp777
sI208
(lp778
sI209
(lp779
sI210
(lp780
sI211
(lp781
sI212
(lp782
sI213
(lp783
sI214
(lp784
sI215
(lp785
(lp786
S'ZINC01532567'
p787
aS'k1'
p788
aS'ZINC03606137'
p789
aS'k3'
p790
aS'ZINC18168715'
p791
aS'k2'
p792
aS'ZINC02562361'
p793
aS'k4'
p794
aS'ZINC30725161'
p795
aa(lp796
S'ZINC01532567'
p797
aS'k1'
p798
aS'ZINC03606137'
p799
aS'k3'
p800
aS'ZINC18168715'
p801
aS'k2'
p802
aS'ZINC02562361'
p803
aS'k4'
p804
aS'ZINC30725157'
p805
aasI216
(lp806
sI217
(lp807
sI218
(lp808
sI219
(lp809
sI220
(lp810
sI221
(lp811
sI222
(lp812
sI223
(lp813
sI224
(lp814
sI225
(lp815
sI226
(lp816
sI227
(lp817
sI228
(lp818
sI229
(lp819
sI230
(lp820
sI231
(lp821
sI232
(lp822
sI233
(lp823
sI234
(lp824
sI235
(lp825
sI236
(lp826
sI237
(lp827
sI238
(lp828
sI239
(lp829
sI240
(lp830
sI241
(lp831
sI242
(lp832
sI243
(lp833
sI244
(lp834
(lp835
S'ZINC18140538'
p836
aS'k3'
p837
aS'ZINC01532049'
p838
aS'k1'
p839
aS'ZINC03860903'
p840
aS'k2'
p841
aS'ZINC02562361'
p842
aS'k4'
p843
aS'ZINC30725161'
p844
aa(lp845
S'ZINC18140538'
p846
aS'k3'
p847
aS'ZINC01532049'
p848
aS'k1'
p849
aS'ZINC03830679'
p850
aS'k2'
p851
aS'ZINC02562361'
p852
aS'k4'
p853
aS'ZINC30725161'
p854
aa(lp855
S'ZINC18140538'
p856
aS'k3'
p857
aS'ZINC01532049'
p858
aS'k1'
p859
aS'ZINC03830679'
p860
aS'k2'
p861
aS'ZINC02562361'
p862
aS'k4'
p863
aS'ZINC30725157'
p864
aa(lp865
S'ZINC18140538'
p866
aS'k3'
p867
aS'ZINC01532049'
p868
aS'k1'
p869
aS'ZINC03860903'
p870
aS'k2'
p871
aS'ZINC02562361'
p872
aS'k4'
p873
aS'ZINC30725157'
p874
aa(lp875
S'ZINC18140538'
p876
aS'k3'
p877
aS'ZINC03830876'
p878
aS'k1'
p879
aS'ZINC03830679'
p880
aS'k2'
p881
aS'ZINC02562361'
p882
aS'k4'
p883
aS'ZINC30725161'
p884
aasI245
(lp885
sI246
(lp886
sI247
(lp887
sI248
(lp888
sI249
(lp889
sI250
(lp890
sI251
(lp891
sI252
(lp892
(lp893
S'ZINC01532567'
p894
aS'k1'
p895
aS'ZINC03606137'
p896
aS'k3'
p897
aS'ZINC18168715'
p898
aS'k2'
p899
aS'ZINC02562361'
p900
aS'k4'
p901
aS'ZINC30725157'
p902
aa(lp903
S'ZINC01532567'
p904
aS'k1'
p905
aS'ZINC03606137'
p906
aS'k3'
p907
aS'ZINC18168715'
p908
aS'k2'
p909
aS'ZINC02562361'
p910
aS'k4'
p911
aS'ZINC30725161'
p912
aasI253
(lp913
sI254
(lp914
sI255
(lp915
sI256
(lp916
sI257
(lp917
(lp918
S'ZINC01532567'
p919
aS'k3'
p920
aS'ZINC00902225'
p921
aS'k1'
p922
aS'ZINC18168715'
p923
aS'k2'
p924
aS'ZINC02562361'
p925
aS'k4'
p926
aS'ZINC30725157'
p927
aa(lp928
S'ZINC01532567'
p929
aS'k3'
p930
aS'ZINC00902225'
p931
aS'k1'
p932
aS'ZINC18168715'
p933
aS'k2'
p934
aS'ZINC02562361'
p935
aS'k4'
p936
aS'ZINC30725161'
p937
aa(lp938
S'ZINC01532567'
p939
aS'k3'
p940
aS'ZINC00895279'
p941
aS'k1'
p942
aS'ZINC18168715'
p943
aS'k2'
p944
aS'ZINC02562361'
p945
aS'k4'
p946
aS'ZINC30725161'
p947
aasI258
(lp948
sI259
(lp949
sI260
(lp950
sI261
(lp951
sI262
(lp952
sI263
(lp953
sI264
(lp954
sI265
(lp955
sI266
(lp956
sI267
(lp957
sI268
(lp958
sI269
(lp959
sI270
(lp960
sI271
(lp961
sI272
(lp962
sI273
(lp963
sI274
(lp964
sI275
(lp965
sI276
(lp966
(lp967
S'ZINC01532567'
p968
aS'k3'
p969
aS'ZINC00902225'
p970
aS'k1'
p971
aS'ZINC18168715'
p972
aS'k2'
p973
aS'ZINC02562361'
p974
aS'k4'
p975
aS'ZINC30725157'
p976
aasI277
(lp977
sI278
(lp978
sI279
(lp979
sI280
(lp980
sI281
(lp981
sI282
(lp982
sI283
(lp983
sI284
(lp984
sI285
(lp985
(lp986
S'ZINC18140538'
p987
aS'k3'
p988
aS'ZINC01532049'
p989
aS'k1'
p990
aS'ZINC03860903'
p991
aS'k2'
p992
aS'ZINC02562361'
p993
aS'k4'
p994
aS'ZINC30725161'
p995
aa(lp996
S'ZINC18140538'
p997
aS'k3'
p998
aS'ZINC01532049'
p999
aS'k1'
p1000
aS'ZINC03860903'
p1001
aS'k2'
p1002
aS'ZINC02562361'
p1003
aS'k4'
p1004
aS'ZINC30725157'
p1005
aa(lp1006
S'ZINC18140538'
p1007
aS'k3'
p1008
aS'ZINC03830876'
p1009
aS'k1'
p1010
aS'ZINC03860903'
p1011
aS'k2'
p1012
aS'ZINC02562361'
p1013
aS'k4'
p1014
aS'ZINC30725157'
p1015
aa(lp1016
S'ZINC18140538'
p1017
aS'k3'
p1018
aS'ZINC01532049'
p1019
aS'k1'
p1020
aS'ZINC03830679'
p1021
aS'k2'
p1022
aS'ZINC02562361'
p1023
aS'k4'
p1024
aS'ZINC30725157'
p1025
aa(lp1026
S'ZINC18140538'
p1027
aS'k3'
p1028
aS'ZINC01532049'
p1029
aS'k1'
p1030
aS'ZINC03830679'
p1031
aS'k2'
p1032
aS'ZINC02562361'
p1033
aS'k4'
p1034
aS'ZINC30725161'
p1035
aa(lp1036
S'ZINC04095539'
p1037
aS'k3'
p1038
aS'ZINC01532049'
p1039
aS'k1'
p1040
aS'ZINC03830679'
p1041
aS'k2'
p1042
aS'ZINC02562361'
p1043
aS'k4'
p1044
aS'ZINC30725157'
p1045
aa(lp1046
S'ZINC18140538'
p1047
aS'k3'
p1048
aS'ZINC03830876'
p1049
aS'k1'
p1050
aS'ZINC03830679'
p1051
aS'k2'
p1052
aS'ZINC02562361'
p1053
aS'k4'
p1054
aS'ZINC30725157'
p1055
aasI286
(lp1056
sI287
(lp1057
sI288
(lp1058
sI289
(lp1059
sI290
(lp1060
sI291
(lp1061
sI292
(lp1062
sI293
(lp1063
sI294
(lp1064
sI295
(lp1065
sI296
(lp1066
sI297
(lp1067
sI298
(lp1068
sI299
(lp1069
sI300
(lp1070
sI301
(lp1071
sI302
(lp1072
sI303
(lp1073
sI304
(lp1074
sI305
(lp1075
sI306
(lp1076
sI307
(lp1077
sI308
(lp1078
sI309
(lp1079
sI310
(lp1080
sI311
(lp1081
sI312
(lp1082
sI313
(lp1083
sI314
(lp1084
sI315
(lp1085
sI316
(lp1086
sI317
(lp1087
sI318
(lp1088
sI319
(lp1089
sI320
(lp1090
sI321
(lp1091
sI322
(lp1092
sI323
(lp1093
sI324
(lp1094
sI325
(lp1095
sI326
(lp1096
sI327
(lp1097
sI328
(lp1098
sI329
(lp1099
sI330
(lp1100
sI331
(lp1101
sI332
(lp1102
(lp1103
S'ZINC01532567'
p1104
aS'k1'
p1105
aS'ZINC03606137'
p1106
aS'k3'
p1107
aS'ZINC18168715'
p1108
aS'k2'
p1109
aS'ZINC02562361'
p1110
aS'k4'
p1111
aS'ZINC30725161'
p1112
aa(lp1113
S'ZINC01532567'
p1114
aS'k1'
p1115
aS'ZINC03606137'
p1116
aS'k3'
p1117
aS'ZINC18168715'
p1118
aS'k2'
p1119
aS'ZINC02562361'
p1120
aS'k4'
p1121
aS'ZINC30725157'
p1122
aasI333
(lp1123
sI334
(lp1124
sI335
(lp1125
sI336
(lp1126
sI337
(lp1127
sI338
(lp1128
sI339
(lp1129
sI340
(lp1130
sI341
(lp1131
sI342
(lp1132
sI343
(lp1133
sI344
(lp1134
sI345
(lp1135
sI346
(lp1136
sI347
(lp1137
sI348
(lp1138
sI349
(lp1139
sI350
(lp1140
sI351
(lp1141
sI352
(lp1142
sI353
(lp1143
sI354
(lp1144
sI355
(lp1145
(lp1146
S'ZINC18140538'
p1147
aS'k3'
p1148
aS'ZINC01532049'
p1149
aS'k1'
p1150
aS'ZINC03860903'
p1151
aS'k2'
p1152
aS'ZINC02562361'
p1153
aS'k4'
p1154
aS'ZINC30725161'
p1155
aa(lp1156
S'ZINC18140538'
p1157
aS'k3'
p1158
aS'ZINC01532049'
p1159
aS'k1'
p1160
aS'ZINC03830679'
p1161
aS'k2'
p1162
aS'ZINC02562361'
p1163
aS'k4'
p1164
aS'ZINC30725161'
p1165
aa(lp1166
S'ZINC18140538'
p1167
aS'k3'
p1168
aS'ZINC01532049'
p1169
aS'k1'
p1170
aS'ZINC03860903'
p1171
aS'k2'
p1172
aS'ZINC02562361'
p1173
aS'k4'
p1174
aS'ZINC30725157'
p1175
aa(lp1176
S'ZINC04096690'
p1177
aS'k3'
p1178
aS'ZINC01532049'
p1179
aS'k1'
p1180
aS'ZINC03860903'
p1181
aS'k2'
p1182
aS'ZINC02562361'
p1183
aS'k4'
p1184
aS'ZINC30725157'
p1185
aa(lp1186
S'ZINC04095539'
p1187
aS'k3'
p1188
aS'ZINC01532049'
p1189
aS'k1'
p1190
aS'ZINC03860903'
p1191
aS'k2'
p1192
aS'ZINC02562361'
p1193
aS'k4'
p1194
aS'ZINC30725157'
p1195
aa(lp1196
S'ZINC18140538'
p1197
aS'k3'
p1198
aS'ZINC03830876'
p1199
aS'k1'
p1200
aS'ZINC03860903'
p1201
aS'k2'
p1202
aS'ZINC02562361'
p1203
aS'k4'
p1204
aS'ZINC30725157'
p1205
aa(lp1206
S'ZINC04095539'
p1207
aS'k3'
p1208
aS'ZINC01532049'
p1209
aS'k1'
p1210
aS'ZINC03830679'
p1211
aS'k2'
p1212
aS'ZINC02562361'
p1213
aS'k4'
p1214
aS'ZINC30725157'
p1215
aa(lp1216
S'ZINC18140538'
p1217
aS'k3'
p1218
aS'ZINC01532049'
p1219
aS'k1'
p1220
aS'ZINC03830679'
p1221
aS'k2'
p1222
aS'ZINC02562361'
p1223
aS'k4'
p1224
aS'ZINC30725157'
p1225
aasI356
(lp1226
sI357
(lp1227
sI358
(lp1228
sI359
(lp1229
sI360
(lp1230
sI361
(lp1231
sI362
(lp1232
sI363
(lp1233
sI364
(lp1234
sI365
(lp1235
sI366
(lp1236
sI367
(lp1237
sI368
(lp1238
sI369
(lp1239
sI370
(lp1240
sI371
(lp1241
sI372
(lp1242
(lp1243
S'ZINC18140538'
p1244
aS'k3'
p1245
aS'ZINC01532049'
p1246
aS'k1'
p1247
aS'ZINC03860903'
p1248
aS'k2'
p1249
aS'ZINC02562361'
p1250
aS'k4'
p1251
aS'ZINC30725161'
p1252
aa(lp1253
S'ZINC18140538'
p1254
aS'k3'
p1255
aS'ZINC01532049'
p1256
aS'k1'
p1257
aS'ZINC03860903'
p1258
aS'k2'
p1259
aS'ZINC02562361'
p1260
aS'k4'
p1261
aS'ZINC30725157'
p1262
aasI373
(lp1263
sI374
(lp1264
sI375
(lp1265
sI376
(lp1266
sI377
(lp1267
sI378
(lp1268
sI379
(lp1269
sI380
(lp1270
sI381
(lp1271
sI382
(lp1272
sI383
(lp1273
sI384
(lp1274
sI385
(lp1275
sI386
(lp1276
sI387
(lp1277
sI388
(lp1278
sI389
(lp1279
sI390
(lp1280
sI391
(lp1281
sI392
(lp1282
sI393
(lp1283
sI394
(lp1284
sI395
(lp1285
sI396
(lp1286
sI397
(lp1287
sI398
(lp1288
sI399
(lp1289
sI400
(lp1290
(lp1291
S'ZINC01532567'
p1292
aS'k1'
p1293
aS'ZINC03606137'
p1294
aS'k3'
p1295
aS'ZINC18168715'
p1296
aS'k2'
p1297
aS'ZINC03870005'
p1298
aS'k4'
p1299
aS'ZINC30725161'
p1300
aa(lp1301
S'ZINC01532567'
p1302
aS'k1'
p1303
aS'ZINC03606137'
p1304
aS'k3'
p1305
aS'ZINC18168715'
p1306
aS'k2'
p1307
aS'ZINC02562361'
p1308
aS'k4'
p1309
aS'ZINC30725161'
p1310
aa(lp1311
S'ZINC01532567'
p1312
aS'k1'
p1313
aS'ZINC03606137'
p1314
aS'k3'
p1315
aS'ZINC18168715'
p1316
aS'k2'
p1317
aS'ZINC02562361'
p1318
aS'k4'
p1319
aS'ZINC30725157'
p1320
aasI401
(lp1321
sI402
(lp1322
sI403
(lp1323
sI404
(lp1324
sI405
(lp1325
sI406
(lp1326
sI407
(lp1327
sI408
(lp1328
sI409
(lp1329
sI410
(lp1330
sI411
(lp1331
sI412
(lp1332
sI413
(lp1333
sI414
(lp1334
sI415
(lp1335
sI416
(lp1336
sI417
(lp1337
sI418
(lp1338
sI419
(lp1339
sI420
(lp1340
sI421
(lp1341
sI422
(lp1342
sI423
(lp1343
sI424
(lp1344
sI425
(lp1345
sI426
(lp1346
sI427
(lp1347
sI428
(lp1348
sI429
(lp1349
sI430
(lp1350
sI431
(lp1351
sI432
(lp1352
sI433
(lp1353
sI434
(lp1354
sI435
(lp1355
sI436
(lp1356
sI437
(lp1357
(lp1358
S'ZINC18140538'
p1359
aS'k3'
p1360
aS'ZINC01532049'
p1361
aS'k1'
p1362
aS'ZINC03860903'
p1363
aS'k2'
p1364
aS'ZINC02562361'
p1365
aS'k4'
p1366
aS'ZINC30725157'
p1367
aa(lp1368
S'ZINC18140538'
p1369
aS'k3'
p1370
aS'ZINC01532049'
p1371
aS'k1'
p1372
aS'ZINC03830679'
p1373
aS'k2'
p1374
aS'ZINC02562361'
p1375
aS'k4'
p1376
aS'ZINC30725157'
p1377
aa(lp1378
S'ZINC18140538'
p1379
aS'k3'
p1380
aS'ZINC01532049'
p1381
aS'k1'
p1382
aS'ZINC03830679'
p1383
aS'k2'
p1384
aS'ZINC02562361'
p1385
aS'k4'
p1386
aS'ZINC30725161'
p1387
aa(lp1388
S'ZINC18140538'
p1389
aS'k3'
p1390
aS'ZINC03830876'
p1391
aS'k1'
p1392
aS'ZINC03830679'
p1393
aS'k2'
p1394
aS'ZINC02562361'
p1395
aS'k4'
p1396
aS'ZINC30725157'
p1397
aa(lp1398
S'ZINC18140538'
p1399
aS'k3'
p1400
aS'ZINC03830876'
p1401
aS'k1'
p1402
aS'ZINC03830679'
p1403
aS'k2'
p1404
aS'ZINC02562361'
p1405
aS'k4'
p1406
aS'ZINC30725161'
p1407
aa(lp1408
S'ZINC18140538'
p1409
aS'k3'
p1410
aS'ZINC01532049'
p1411
aS'k1'
p1412
aS'ZINC03860903'
p1413
aS'k2'
p1414
aS'ZINC02562361'
p1415
aS'k4'
p1416
aS'ZINC30725161'
p1417
aa(lp1418
S'ZINC18140538'
p1419
aS'k3'
p1420
aS'ZINC03830876'
p1421
aS'k1'
p1422
aS'ZINC03860903'
p1423
aS'k2'
p1424
aS'ZINC02562361'
p1425
aS'k4'
p1426
aS'ZINC30725161'
p1427
aa(lp1428
S'ZINC18140538'
p1429
aS'k3'
p1430
aS'ZINC03830876'
p1431
aS'k1'
p1432
aS'ZINC03860903'
p1433
aS'k2'
p1434
aS'ZINC02562361'
p1435
aS'k4'
p1436
aS'ZINC30725157'
p1437
aa(lp1438
S'ZINC04095539'
p1439
aS'k3'
p1440
aS'ZINC01532049'
p1441
aS'k1'
p1442
aS'ZINC03860903'
p1443
aS'k2'
p1444
aS'ZINC02562361'
p1445
aS'k4'
p1446
aS'ZINC30725157'
p1447
aasI438
(lp1448
sI439
(lp1449
sI440
(lp1450
sI441
(lp1451
sI442
(lp1452
sI443
(lp1453
sI444
(lp1454
sI445
(lp1455
sI446
(lp1456
sI447
(lp1457
(lp1458
S'ZINC56874962'
p1459
aS'k1'
p1460
aS'ZINC03606137'
p1461
aS'k3'
p1462
aS'ZINC18168715'
p1463
aS'k2'
p1464
aS'ZINC02562361'
p1465
aS'k4'
p1466
aS'ZINC30725157'
p1467
aa(lp1468
S'ZINC56874962'
p1469
aS'k1'
p1470
aS'ZINC03606137'
p1471
aS'k3'
p1472
aS'ZINC18168715'
p1473
aS'k2'
p1474
aS'ZINC02562361'
p1475
aS'k4'
p1476
aS'ZINC30725161'
p1477
aa(lp1478
S'ZINC01532567'
p1479
aS'k1'
p1480
aS'ZINC03606137'
p1481
aS'k3'
p1482
aS'ZINC18168715'
p1483
aS'k2'
p1484
aS'ZINC02562361'
p1485
aS'k4'
p1486
aS'ZINC30725161'
p1487
aa(lp1488
S'ZINC01532567'
p1489
aS'k1'
p1490
aS'ZINC03606137'
p1491
aS'k3'
p1492
aS'ZINC18168715'
p1493
aS'k2'
p1494
aS'ZINC02562361'
p1495
aS'k4'
p1496
aS'ZINC30725157'
p1497
aasI448
(lp1498
sI449
(lp1499
sI450
(lp1500
sI451
(lp1501
sI452
(lp1502
sI453
(lp1503
sI454
(lp1504
sI455
(lp1505
sI456
(lp1506
sI457
(lp1507
sI458
(lp1508
(lp1509
S'ZINC01532567'
p1510
aS'k3'
p1511
aS'ZINC00895279'
p1512
aS'k1'
p1513
aS'ZINC18168715'
p1514
aS'k2'
p1515
aS'ZINC02562361'
p1516
aS'k4'
p1517
aS'ZINC30725161'
p1518
aa(lp1519
S'ZINC01532567'
p1520
aS'k3'
p1521
aS'ZINC00902225'
p1522
aS'k1'
p1523
aS'ZINC18168715'
p1524
aS'k2'
p1525
aS'ZINC02562361'
p1526
aS'k4'
p1527
aS'ZINC30725161'
p1528
aa(lp1529
S'ZINC01532567'
p1530
aS'k3'
p1531
aS'ZINC00895279'
p1532
aS'k1'
p1533
aS'ZINC18168715'
p1534
aS'k2'
p1535
aS'ZINC02562361'
p1536
aS'k4'
p1537
aS'ZINC30725157'
p1538
aa(lp1539
S'ZINC01532567'
p1540
aS'k3'
p1541
aS'ZINC00902225'
p1542
aS'k1'
p1543
aS'ZINC18168715'
p1544
aS'k2'
p1545
aS'ZINC02562361'
p1546
aS'k4'
p1547
aS'ZINC30725157'
p1548
aasI459
(lp1549
sI460
(lp1550
sI461
(lp1551
sI462
(lp1552
sI463
(lp1553
sI464
(lp1554
sI465
(lp1555
sI466
(lp1556
sI467
(lp1557
sI468
(lp1558
sI469
(lp1559
sI470
(lp1560
sI471
(lp1561
sI472
(lp1562
sI473
(lp1563
sI474
(lp1564
sI475
(lp1565
sI476
(lp1566
sI477
(lp1567
sI478
(lp1568
sI479
(lp1569
sI480
(lp1570
sI481
(lp1571
sI482
(lp1572
(lp1573
S'ZINC01532567'
p1574
aS'k1'
p1575
aS'ZINC03606137'
p1576
aS'k3'
p1577
aS'ZINC18168715'
p1578
aS'k2'
p1579
aS'ZINC03870005'
p1580
aS'k4'
p1581
aS'ZINC30725157'
p1582
aa(lp1583
S'ZINC01532567'
p1584
aS'k1'
p1585
aS'ZINC03606137'
p1586
aS'k3'
p1587
aS'ZINC18168715'
p1588
aS'k2'
p1589
aS'ZINC02562361'
p1590
aS'k4'
p1591
aS'ZINC30725157'
p1592
aa(lp1593
S'ZINC01532567'
p1594
aS'k1'
p1595
aS'ZINC03606137'
p1596
aS'k3'
p1597
aS'ZINC18168715'
p1598
aS'k2'
p1599
aS'ZINC02562361'
p1600
aS'k4'
p1601
aS'ZINC30725161'
p1602
aasI483
(lp1603
sI484
(lp1604
sI485
(lp1605
sI486
(lp1606
sI487
(lp1607
sI488
(lp1608
sI489
(lp1609
sI490
(lp1610
sI491
(lp1611
sI492
(lp1612
sI493
(lp1613
sI494
(lp1614
sI495
(lp1615
sI496
(lp1616
sI497
(lp1617
sI498
(lp1618
sI499
(lp1619
sI500
(lp1620
sI501
(lp1621
sI502
(lp1622
sI503
(lp1623
sI504
(lp1624
sI505
(lp1625
sI506
(lp1626
sI507
(lp1627
sI508
(lp1628
sI509
(lp1629
sI510
(lp1630
sI511
(lp1631
sI512
(lp1632
(lp1633
S'ZINC01532567'
p1634
aS'k3'
p1635
aS'ZINC00895279'
p1636
aS'k1'
p1637
aS'ZINC18168715'
p1638
aS'k2'
p1639
aS'ZINC03870005'
p1640
aS'k4'
p1641
aS'ZINC30725157'
p1642
aa(lp1643
S'ZINC01532567'
p1644
aS'k3'
p1645
aS'ZINC00895279'
p1646
aS'k1'
p1647
aS'ZINC18168715'
p1648
aS'k2'
p1649
aS'ZINC03870005'
p1650
aS'k4'
p1651
aS'ZINC30725161'
p1652
aa(lp1653
S'ZINC01532567'
p1654
aS'k3'
p1655
aS'ZINC00902225'
p1656
aS'k1'
p1657
aS'ZINC18168715'
p1658
aS'k2'
p1659
aS'ZINC03870005'
p1660
aS'k4'
p1661
aS'ZINC30725161'
p1662
aa(lp1663
S'ZINC01532567'
p1664
aS'k3'
p1665
aS'ZINC00902225'
p1666
aS'k1'
p1667
aS'ZINC18168715'
p1668
aS'k2'
p1669
aS'ZINC02562361'
p1670
aS'k4'
p1671
aS'ZINC30725161'
p1672
aa(lp1673
S'ZINC01532567'
p1674
aS'k3'
p1675
aS'ZINC00902225'
p1676
aS'k1'
p1677
aS'ZINC18168715'
p1678
aS'k2'
p1679
aS'ZINC02562361'
p1680
aS'k4'
p1681
aS'ZINC30725157'
p1682
aasI513
(lp1683
sI514
(lp1684
sI515
(lp1685
sI516
(lp1686
sI517
(lp1687
sI518
(lp1688
sI519
(lp1689
sI520
(lp1690
sI521
(lp1691
sI522
(lp1692
sI523
(lp1693
sI524
(lp1694
sI525
(lp1695
sI526
(lp1696
sI527
(lp1697
sI528
(lp1698
sI529
(lp1699
sI530
(lp1700
sI531
(lp1701
(lp1702
S'ZINC01532567'
p1703
aS'k1'
p1704
aS'ZINC03606137'
p1705
aS'k2'
p1706
aS'ZINC03870009'
p1707
aS'k3'
p1708
aS'ZINC02562361'
p1709
aS'k4'
p1710
aS'ZINC30725161'
p1711
aa(lp1712
S'ZINC01532567'
p1713
aS'k1'
p1714
aS'ZINC03606137'
p1715
aS'k2'
p1716
aS'ZINC03870009'
p1717
aS'k3'
p1718
aS'ZINC02562361'
p1719
aS'k4'
p1720
aS'ZINC30725157'
p1721
aasI532
(lp1722
sI533
(lp1723
sI534
(lp1724
sI535
(lp1725
sI536
(lp1726
sI537
(lp1727
sI538
(lp1728
sI539
(lp1729
sI540
(lp1730
sI541
(lp1731
sI542
(lp1732
sI543
(lp1733
sI544
(lp1734
sI545
(lp1735
sI546
(lp1736
sI547
(lp1737
sI548
(lp1738
sI549
(lp1739
sI550
(lp1740
sI551
(lp1741
sI552
(lp1742
sI553
(lp1743
sI554
(lp1744
(lp1745
S'ZINC01532567'
p1746
aS'k1'
p1747
aS'ZINC03606137'
p1748
aS'k3'
p1749
aS'ZINC18168715'
p1750
aS'k2'
p1751
aS'ZINC02562361'
p1752
aS'k4'
p1753
aS'ZINC30725161'
p1754
aa(lp1755
S'ZINC01532567'
p1756
aS'k1'
p1757
aS'ZINC03606137'
p1758
aS'k3'
p1759
aS'ZINC18168715'
p1760
aS'k2'
p1761
aS'ZINC02562361'
p1762
aS'k4'
p1763
aS'ZINC30725157'
p1764
aasI555
(lp1765
sI556
(lp1766
sI557
(lp1767
sI558
(lp1768
sI559
(lp1769
sI560
(lp1770
sI561
(lp1771
sI562
(lp1772
sI563
(lp1773
sI564
(lp1774
(lp1775
S'ZINC01532567'
p1776
aS'k1'
p1777
aS'ZINC03606137'
p1778
aS'k3'
p1779
aS'ZINC18168715'
p1780
aS'k2'
p1781
aS'ZINC02562361'
p1782
aS'k4'
p1783
aS'ZINC30725157'
p1784
aa(lp1785
S'ZINC01532567'
p1786
aS'k1'
p1787
aS'ZINC03606137'
p1788
aS'k3'
p1789
aS'ZINC18168715'
p1790
aS'k2'
p1791
aS'ZINC02562361'
p1792
aS'k4'
p1793
aS'ZINC30725161'
p1794
aasI565
(lp1795
sI566
(lp1796
sI567
(lp1797
sI568
(lp1798
sI569
(lp1799
sI570
(lp1800
sI571
(lp1801
sI572
(lp1802
sI573
(lp1803
sI574
(lp1804
sI575
(lp1805
sI576
(lp1806
sI577
(lp1807
sI578
(lp1808
sI579
(lp1809
sI580
(lp1810
sI581
(lp1811
sI582
(lp1812
sI583
(lp1813
sI584
(lp1814
sI585
(lp1815
sI586
(lp1816
sI587
(lp1817
sI588
(lp1818
sI589
(lp1819
sI590
(lp1820
sI591
(lp1821
sI592
(lp1822
sI593
(lp1823
sI594
(lp1824
sI595
(lp1825
sI596
(lp1826
sI597
(lp1827
sI598
(lp1828
sI599
(lp1829
sI600
(lp1830
sI601
(lp1831
sI602
(lp1832
sI603
(lp1833
sI604
(lp1834
sI605
(lp1835
sI606
(lp1836
sI607
(lp1837
sI608
(lp1838
sI609
(lp1839
sI610
(lp1840
sI611
(lp1841
sI612
(lp1842
sI613
(lp1843
sI614
(lp1844
sI615
(lp1845
sI616
(lp1846
sI617
(lp1847
sI618
(lp1848
sI619
(lp1849
sI620
(lp1850
sI621
(lp1851
sI622
(lp1852
sI623
(lp1853
sI624
(lp1854
sI625
(lp1855
sI626
(lp1856
sI627
(lp1857
sI628
(lp1858
sI629
(lp1859
sI630
(lp1860
sI631
(lp1861
sI632
(lp1862
sI633
(lp1863
sI634
(lp1864
sI635
(lp1865
sI636
(lp1866
sI637
(lp1867
(lp1868
S'ZINC18140538'
p1869
aS'k3'
p1870
aS'ZINC01532049'
p1871
aS'k1'
p1872
aS'ZINC03860903'
p1873
aS'k2'
p1874
aS'ZINC02562361'
p1875
aS'k4'
p1876
aS'ZINC30725157'
p1877
aa(lp1878
S'ZINC18140538'
p1879
aS'k3'
p1880
aS'ZINC01532049'
p1881
aS'k1'
p1882
aS'ZINC03830679'
p1883
aS'k2'
p1884
aS'ZINC02562361'
p1885
aS'k4'
p1886
aS'ZINC30725157'
p1887
aa(lp1888
S'ZINC18140538'
p1889
aS'k3'
p1890
aS'ZINC03830876'
p1891
aS'k1'
p1892
aS'ZINC03830679'
p1893
aS'k2'
p1894
aS'ZINC02562361'
p1895
aS'k4'
p1896
aS'ZINC30725157'
p1897
aa(lp1898
S'ZINC18140538'
p1899
aS'k3'
p1900
aS'ZINC03830876'
p1901
aS'k1'
p1902
aS'ZINC03860903'
p1903
aS'k2'
p1904
aS'ZINC02562361'
p1905
aS'k4'
p1906
aS'ZINC30725157'
p1907
aa(lp1908
S'ZINC18140538'
p1909
aS'k3'
p1910
aS'ZINC03830876'
p1911
aS'k1'
p1912
aS'ZINC03860903'
p1913
aS'k2'
p1914
aS'ZINC02562361'
p1915
aS'k4'
p1916
aS'ZINC30725161'
p1917
aa(lp1918
S'ZINC18140538'
p1919
aS'k3'
p1920
aS'ZINC01532049'
p1921
aS'k1'
p1922
aS'ZINC03830679'
p1923
aS'k2'
p1924
aS'ZINC02562361'
p1925
aS'k4'
p1926
aS'ZINC30725161'
p1927
aa(lp1928
S'ZINC04096690'
p1929
aS'k3'
p1930
aS'ZINC01532049'
p1931
aS'k1'
p1932
aS'ZINC03830679'
p1933
aS'k2'
p1934
aS'ZINC02562361'
p1935
aS'k4'
p1936
aS'ZINC30725157'
p1937
aa(lp1938
S'ZINC04095539'
p1939
aS'k3'
p1940
aS'ZINC01532049'
p1941
aS'k1'
p1942
aS'ZINC03830679'
p1943
aS'k2'
p1944
aS'ZINC02562361'
p1945
aS'k4'
p1946
aS'ZINC30725157'
p1947
aa(lp1948
S'ZINC04095539'
p1949
aS'k3'
p1950
aS'ZINC01532049'
p1951
aS'k1'
p1952
aS'ZINC03860903'
p1953
aS'k2'
p1954
aS'ZINC02562361'
p1955
aS'k4'
p1956
aS'ZINC30725157'
p1957
aa(lp1958
S'ZINC04096690'
p1959
aS'k3'
p1960
aS'ZINC01532049'
p1961
aS'k1'
p1962
aS'ZINC03860903'
p1963
aS'k2'
p1964
aS'ZINC02562361'
p1965
aS'k4'
p1966
aS'ZINC30725157'
p1967
aa(lp1968
S'ZINC18140538'
p1969
aS'k3'
p1970
aS'ZINC03830876'
p1971
aS'k1'
p1972
aS'ZINC03830679'
p1973
aS'k2'
p1974
aS'ZINC02562361'
p1975
aS'k4'
p1976
aS'ZINC30725161'
p1977
aa(lp1978
S'ZINC18140538'
p1979
aS'k3'
p1980
aS'ZINC01532049'
p1981
aS'k1'
p1982
aS'ZINC03860903'
p1983
aS'k2'
p1984
aS'ZINC02562361'
p1985
aS'k4'
p1986
aS'ZINC30725161'
p1987
aasI638
(lp1988
sI639
(lp1989
sI640
(lp1990
sI641
(lp1991
sI642
(lp1992
(lp1993
S'ZINC18140538'
p1994
aS'k3'
p1995
aS'ZINC03830876'
p1996
aS'k1'
p1997
aS'ZINC03830679'
p1998
aS'k2'
p1999
aS'ZINC02562361'
p2000
aS'k4'
p2001
aS'ZINC30725161'
p2002
aa(lp2003
S'ZINC18140538'
p2004
aS'k3'
p2005
aS'ZINC03830876'
p2006
aS'k1'
p2007
aS'ZINC03830679'
p2008
aS'k2'
p2009
aS'ZINC02562361'
p2010
aS'k4'
p2011
aS'ZINC30725157'
p2012
aa(lp2013
S'ZINC18140538'
p2014
aS'k3'
p2015
aS'ZINC01532049'
p2016
aS'k1'
p2017
aS'ZINC03830679'
p2018
aS'k2'
p2019
aS'ZINC02562361'
p2020
aS'k4'
p2021
aS'ZINC30725161'
p2022
aa(lp2023
S'ZINC18140538'
p2024
aS'k3'
p2025
aS'ZINC01532049'
p2026
aS'k1'
p2027
aS'ZINC03860903'
p2028
aS'k2'
p2029
aS'ZINC02562361'
p2030
aS'k4'
p2031
aS'ZINC30725161'
p2032
aa(lp2033
S'ZINC18140538'
p2034
aS'k3'
p2035
aS'ZINC01532049'
p2036
aS'k1'
p2037
aS'ZINC03830679'
p2038
aS'k2'
p2039
aS'ZINC02562361'
p2040
aS'k4'
p2041
aS'ZINC30725157'
p2042
aa(lp2043
S'ZINC18140538'
p2044
aS'k3'
p2045
aS'ZINC01532049'
p2046
aS'k1'
p2047
aS'ZINC03860903'
p2048
aS'k2'
p2049
aS'ZINC02562361'
p2050
aS'k4'
p2051
aS'ZINC30725157'
p2052
aa(lp2053
S'ZINC18140538'
p2054
aS'k3'
p2055
aS'ZINC03830876'
p2056
aS'k1'
p2057
aS'ZINC03860903'
p2058
aS'k2'
p2059
aS'ZINC02562361'
p2060
aS'k4'
p2061
aS'ZINC30725157'
p2062
aa(lp2063
S'ZINC18140538'
p2064
aS'k3'
p2065
aS'ZINC03830876'
p2066
aS'k1'
p2067
aS'ZINC03860903'
p2068
aS'k2'
p2069
aS'ZINC02562361'
p2070
aS'k4'
p2071
aS'ZINC30725161'
p2072
aasI643
(lp2073
sI644
(lp2074
sI645
(lp2075
sI646
(lp2076
sI647
(lp2077
sI648
(lp2078
sI649
(lp2079
sI650
(lp2080
sI651
(lp2081
sI652
(lp2082
sI653
(lp2083
sI654
(lp2084
sI655
(lp2085
(lp2086
S'ZINC01532567'
p2087
aS'k1'
p2088
aS'ZINC03606137'
p2089
aS'k3'
p2090
aS'ZINC18168715'
p2091
aS'k2'
p2092
aS'ZINC03870005'
p2093
aS'k4'
p2094
aS'ZINC30320686'
p2095
aa(lp2096
S'ZINC01532567'
p2097
aS'k1'
p2098
aS'ZINC03606137'
p2099
aS'k3'
p2100
aS'ZINC18168715'
p2101
aS'k2'
p2102
aS'ZINC03870005'
p2103
aS'k4'
p2104
aS'ZINC08215638'
p2105
aa(lp2106
S'ZINC01532567'
p2107
aS'k1'
p2108
aS'ZINC03606137'
p2109
aS'k3'
p2110
aS'ZINC18168715'
p2111
aS'k2'
p2112
aS'ZINC03870005'
p2113
aS'k4'
p2114
aS'ZINC30725161'
p2115
aa(lp2116
S'ZINC01532567'
p2117
aS'k1'
p2118
aS'ZINC03606137'
p2119
aS'k3'
p2120
aS'ZINC18168715'
p2121
aS'k2'
p2122
aS'ZINC03870005'
p2123
aS'k4'
p2124
aS'ZINC30725157'
p2125
aa(lp2126
S'ZINC01532567'
p2127
aS'k1'
p2128
aS'ZINC03606137'
p2129
aS'k3'
p2130
aS'ZINC18168715'
p2131
aS'k2'
p2132
aS'ZINC02562361'
p2133
aS'k4'
p2134
aS'ZINC30725161'
p2135
aasI656
(lp2136
sI657
(lp2137
sI658
(lp2138
sI659
(lp2139
sI660
(lp2140
sI661
(lp2141
sI662
(lp2142
sI663
(lp2143
sI664
(lp2144
sI665
(lp2145
sI666
(lp2146
sI667
(lp2147
sI668
(lp2148
sI669
(lp2149
sI670
(lp2150
sI671
(lp2151
sI672
(lp2152
sI673
(lp2153
sI674
(lp2154
sI675
(lp2155
sI676
(lp2156
sI677
(lp2157
sI678
(lp2158
sI679
(lp2159
sI680
(lp2160
sI681
(lp2161
sI682
(lp2162
sI683
(lp2163
sI684
(lp2164
sI685
(lp2165
sI686
(lp2166
sI687
(lp2167
sI688
(lp2168
sI689
(lp2169
sI690
(lp2170
sI691
(lp2171
sI692
(lp2172
sI693
(lp2173
sI694
(lp2174
sI695
(lp2175
sI696
(lp2176
sI697
(lp2177
sI698
(lp2178
sI699
(lp2179
sI700
(lp2180
sI701
(lp2181
sI702
(lp2182
sI703
(lp2183
sI704
(lp2184
sI705
(lp2185
sI706
(lp2186
sI707
(lp2187
sI708
(lp2188
sI709
(lp2189
sI710
(lp2190
sI711
(lp2191
sI712
(lp2192
sI713
(lp2193
sI714
(lp2194
sI715
(lp2195
sI716
(lp2196
sI717
(lp2197
sI718
(lp2198
sI719
(lp2199
sI720
(lp2200
sI721
(lp2201
sI722
(lp2202
sI723
(lp2203
sI724
(lp2204
sI725
(lp2205
sI726
(lp2206
sI727
(lp2207
sI728
(lp2208
sI729
(lp2209
sI730
(lp2210
sI731
(lp2211
sI732
(lp2212
sI733
(lp2213
sI734
(lp2214
sI735
(lp2215
sI736
(lp2216
sI737
(lp2217
sI738
(lp2218
sI739
(lp2219
sI740
(lp2220
sI741
(lp2221
sI742
(lp2222
sI743
(lp2223
sI744
(lp2224
sI745
(lp2225
sI746
(lp2226
sI747
(lp2227
sI748
(lp2228
sI749
(lp2229
sI750
(lp2230
sI751
(lp2231
sI752
(lp2232
(lp2233
S'ZINC01532567'
p2234
aS'k3'
p2235
aS'ZINC00902225'
p2236
aS'k1'
p2237
aS'ZINC18168715'
p2238
aS'k2'
p2239
aS'ZINC02562361'
p2240
aS'k4'
p2241
aS'ZINC30725157'
p2242
aasI753
(lp2243
(lp2244
S'ZINC56874962'
p2245
aS'k1'
p2246
aS'ZINC03606137'
p2247
aS'k3'
p2248
aS'ZINC18168715'
p2249
aS'k2'
p2250
aS'ZINC02562361'
p2251
aS'k4'
p2252
aS'ZINC30725161'
p2253
aa(lp2254
S'ZINC01532567'
p2255
aS'k1'
p2256
aS'ZINC03606137'
p2257
aS'k3'
p2258
aS'ZINC18168715'
p2259
aS'k2'
p2260
aS'ZINC02562361'
p2261
aS'k4'
p2262
aS'ZINC30725161'
p2263
aa(lp2264
S'ZINC01532567'
p2265
aS'k1'
p2266
aS'ZINC03606137'
p2267
aS'k3'
p2268
aS'ZINC18168715'
p2269
aS'k2'
p2270
aS'ZINC02562361'
p2271
aS'k4'
p2272
aS'ZINC30725157'
p2273
aasI754
(lp2274
sI755
(lp2275
sI756
(lp2276
sI757
(lp2277
sI758
(lp2278
sI759
(lp2279
sI760
(lp2280
sI761
(lp2281
sI762
(lp2282
sI763
(lp2283
sI764
(lp2284
sI765
(lp2285
sI766
(lp2286
sI767
(lp2287
sI768
(lp2288
sI769
(lp2289
sI770
(lp2290
sI771
(lp2291
sI772
(lp2292
sI773
(lp2293
sI774
(lp2294
sI775
(lp2295
sI776
(lp2296
sI777
(lp2297
sI778
(lp2298
sI779
(lp2299
(lp2300
S'ZINC01532567'
p2301
aS'k1'
p2302
aS'ZINC03606137'
p2303
aS'k2'
p2304
aS'ZINC03870009'
p2305
aS'k3'
p2306
aS'ZINC02562361'
p2307
aS'k4'
p2308
aS'ZINC30725157'
p2309
aa(lp2310
S'ZINC01532567'
p2311
aS'k1'
p2312
aS'ZINC03606137'
p2313
aS'k2'
p2314
aS'ZINC03870009'
p2315
aS'k3'
p2316
aS'ZINC02562361'
p2317
aS'k4'
p2318
aS'ZINC30725161'
p2319
aasI780
(lp2320
sI781
(lp2321
sI782
(lp2322
sI783
(lp2323
sI784
(lp2324
sI785
(lp2325
(lp2326
S'ZINC01532567'
p2327
aS'k3'
p2328
aS'ZINC00902225'
p2329
aS'k1'
p2330
aS'ZINC18168715'
p2331
aS'k2'
p2332
aS'ZINC02562361'
p2333
aS'k4'
p2334
aS'ZINC30725161'
p2335
aa(lp2336
S'ZINC01532567'
p2337
aS'k3'
p2338
aS'ZINC00902225'
p2339
aS'k1'
p2340
aS'ZINC18168715'
p2341
aS'k2'
p2342
aS'ZINC02562361'
p2343
aS'k4'
p2344
aS'ZINC30725157'
p2345
aa(lp2346
S'ZINC01532567'
p2347
aS'k3'
p2348
aS'ZINC00895279'
p2349
aS'k1'
p2350
aS'ZINC18168715'
p2351
aS'k2'
p2352
aS'ZINC02562361'
p2353
aS'k4'
p2354
aS'ZINC30725157'
p2355
aasI786
(lp2356
sI787
(lp2357
sI788
(lp2358
(lp2359
S'ZINC18140538'
p2360
aS'k3'
p2361
aS'ZINC03830876'
p2362
aS'k1'
p2363
aS'ZINC03860903'
p2364
aS'k2'
p2365
aS'ZINC02562361'
p2366
aS'k4'
p2367
aS'ZINC30725157'
p2368
aa(lp2369
S'ZINC18140538'
p2370
aS'k3'
p2371
aS'ZINC03830876'
p2372
aS'k1'
p2373
aS'ZINC03860903'
p2374
aS'k2'
p2375
aS'ZINC02562361'
p2376
aS'k4'
p2377
aS'ZINC30725161'
p2378
aa(lp2379
S'ZINC18140538'
p2380
aS'k3'
p2381
aS'ZINC03830876'
p2382
aS'k1'
p2383
aS'ZINC03830679'
p2384
aS'k2'
p2385
aS'ZINC02562361'
p2386
aS'k4'
p2387
aS'ZINC30725161'
p2388
aa(lp2389
S'ZINC18140538'
p2390
aS'k3'
p2391
aS'ZINC03830876'
p2392
aS'k1'
p2393
aS'ZINC03830679'
p2394
aS'k2'
p2395
aS'ZINC02562361'
p2396
aS'k4'
p2397
aS'ZINC30725157'
p2398
aa(lp2399
S'ZINC18140538'
p2400
aS'k3'
p2401
aS'ZINC01532049'
p2402
aS'k1'
p2403
aS'ZINC03830679'
p2404
aS'k2'
p2405
aS'ZINC02562361'
p2406
aS'k4'
p2407
aS'ZINC30725157'
p2408
aa(lp2409
S'ZINC18140538'
p2410
aS'k3'
p2411
aS'ZINC01532049'
p2412
aS'k1'
p2413
aS'ZINC03860903'
p2414
aS'k2'
p2415
aS'ZINC02562361'
p2416
aS'k4'
p2417
aS'ZINC30725157'
p2418
aa(lp2419
S'ZINC18140538'
p2420
aS'k3'
p2421
aS'ZINC01532049'
p2422
aS'k1'
p2423
aS'ZINC03830679'
p2424
aS'k2'
p2425
aS'ZINC02562361'
p2426
aS'k4'
p2427
aS'ZINC30725161'
p2428
aasI789
(lp2429
sI790
(lp2430
sI791
(lp2431
sI792
(lp2432
sI793
(lp2433
sI794
(lp2434
sI795
(lp2435
sI796
(lp2436
sI797
(lp2437
sI798
(lp2438
sI799
(lp2439
sI800
(lp2440
sI801
(lp2441
(lp2442
S'ZINC56874962'
p2443
aS'k1'
p2444
aS'ZINC03606137'
p2445
aS'k3'
p2446
aS'ZINC18168715'
p2447
aS'k2'
p2448
aS'ZINC02562361'
p2449
aS'k4'
p2450
aS'ZINC30725161'
p2451
aasI802
(lp2452
sI803
(lp2453
sI804
(lp2454
sI805
(lp2455
sI806
(lp2456
sI807
(lp2457
sI808
(lp2458
sI809
(lp2459
sI810
(lp2460
sI811
(lp2461
sI812
(lp2462
sI813
(lp2463
sI814
(lp2464
sI815
(lp2465
(lp2466
S'ZINC01532567'
p2467
aS'k3'
p2468
aS'ZINC00902225'
p2469
aS'k1'
p2470
aS'ZINC18168715'
p2471
aS'k2'
p2472
aS'ZINC02562361'
p2473
aS'k4'
p2474
aS'ZINC30725157'
p2475
aa(lp2476
S'ZINC01532567'
p2477
aS'k3'
p2478
aS'ZINC00902225'
p2479
aS'k1'
p2480
aS'ZINC18168715'
p2481
aS'k2'
p2482
aS'ZINC02562361'
p2483
aS'k4'
p2484
aS'ZINC30725161'
p2485
aa(lp2486
S'ZINC01532567'
p2487
aS'k3'
p2488
aS'ZINC00895279'
p2489
aS'k1'
p2490
aS'ZINC18168715'
p2491
aS'k2'
p2492
aS'ZINC02562361'
p2493
aS'k4'
p2494
aS'ZINC30725157'
p2495
aa(lp2496
S'ZINC01532567'
p2497
aS'k3'
p2498
aS'ZINC00895279'
p2499
aS'k1'
p2500
aS'ZINC18168715'
p2501
aS'k2'
p2502
aS'ZINC02562361'
p2503
aS'k4'
p2504
aS'ZINC30725161'
p2505
aasI816
(lp2506
sI817
(lp2507
sI818
(lp2508
sI819
(lp2509
sI820
(lp2510
sI821
(lp2511
sI822
(lp2512
(lp2513
S'ZINC56874962'
p2514
aS'k1'
p2515
aS'ZINC03606137'
p2516
aS'k3'
p2517
aS'ZINC18168715'
p2518
aS'k2'
p2519
aS'ZINC02562361'
p2520
aS'k4'
p2521
aS'ZINC30725161'
p2522
aa(lp2523
S'ZINC56874962'
p2524
aS'k1'
p2525
aS'ZINC03606137'
p2526
aS'k3'
p2527
aS'ZINC18168715'
p2528
aS'k2'
p2529
aS'ZINC02562361'
p2530
aS'k4'
p2531
aS'ZINC30725157'
p2532
aa(lp2533
S'ZINC01532567'
p2534
aS'k1'
p2535
aS'ZINC03606137'
p2536
aS'k3'
p2537
aS'ZINC18168715'
p2538
aS'k2'
p2539
aS'ZINC02562361'
p2540
aS'k4'
p2541
aS'ZINC30725157'
p2542
aa(lp2543
S'ZINC01532567'
p2544
aS'k1'
p2545
aS'ZINC03606137'
p2546
aS'k3'
p2547
aS'ZINC18168715'
p2548
aS'k2'
p2549
aS'ZINC02562361'
p2550
aS'k4'
p2551
aS'ZINC30725161'
p2552
aasI823
(lp2553
sI824
(lp2554
sI825
(lp2555
sI826
(lp2556
sI827
(lp2557
sI828
(lp2558
sI829
(lp2559
sI830
(lp2560
sI831
(lp2561
sI832
(lp2562
sI833
(lp2563
sI834
(lp2564
sI835
(lp2565
sI836
(lp2566
sI837
(lp2567
sI838
(lp2568
(lp2569
S'ZINC18140538'
p2570
aS'k3'
p2571
aS'ZINC01532049'
p2572
aS'k1'
p2573
aS'ZINC03860903'
p2574
aS'k2'
p2575
aS'ZINC02562361'
p2576
aS'k4'
p2577
aS'ZINC30725161'
p2578
aa(lp2579
S'ZINC04096690'
p2580
aS'k3'
p2581
aS'ZINC01532049'
p2582
aS'k1'
p2583
aS'ZINC03860903'
p2584
aS'k2'
p2585
aS'ZINC02562361'
p2586
aS'k4'
p2587
aS'ZINC30725157'
p2588
aasI839
(lp2589
sI840
(lp2590
sI841
(lp2591
sI842
(lp2592
sI843
(lp2593
sI844
(lp2594
sI845
(lp2595
sI846
(lp2596
sI847
(lp2597
sI848
(lp2598
sI849
(lp2599
sI850
(lp2600
sI851
(lp2601
sI852
(lp2602
sI853
(lp2603
sI854
(lp2604
sI855
(lp2605
sI856
(lp2606
sI857
(lp2607
sI858
(lp2608
sI859
(lp2609
sI860
(lp2610
sI861
(lp2611
sI862
(lp2612
sI863
(lp2613
sI864
(lp2614
sI865
(lp2615
sI866
(lp2616
sI867
(lp2617
sI868
(lp2618
sI869
(lp2619
sI870
(lp2620
sI871
(lp2621
sI872
(lp2622
sI873
(lp2623
sI874
(lp2624
sI875
(lp2625
sI876
(lp2626
sI877
(lp2627
(lp2628
S'ZINC56874962'
p2629
aS'k1'
p2630
aS'ZINC03606137'
p2631
aS'k3'
p2632
aS'ZINC18168715'
p2633
aS'k2'
p2634
aS'ZINC02562361'
p2635
aS'k4'
p2636
aS'ZINC30725161'
p2637
aa(lp2638
S'ZINC56874962'
p2639
aS'k1'
p2640
aS'ZINC03606137'
p2641
aS'k3'
p2642
aS'ZINC18168715'
p2643
aS'k2'
p2644
aS'ZINC02562361'
p2645
aS'k4'
p2646
aS'ZINC30725157'
p2647
aa(lp2648
S'ZINC01532567'
p2649
aS'k1'
p2650
aS'ZINC03606137'
p2651
aS'k3'
p2652
aS'ZINC18168715'
p2653
aS'k2'
p2654
aS'ZINC02562361'
p2655
aS'k4'
p2656
aS'ZINC30725161'
p2657
aasI878
(lp2658
sI879
(lp2659
sI880
(lp2660
sI881
(lp2661
sI882
(lp2662
sI883
(lp2663
sI884
(lp2664
sI885
(lp2665
sI886
(lp2666
sI887
(lp2667
sI888
(lp2668
sI889
(lp2669
sI890
(lp2670
sI891
(lp2671
sI892
(lp2672
sI893
(lp2673
sI894
(lp2674
sI895
(lp2675
sI896
(lp2676
sI897
(lp2677
sI898
(lp2678
sI899
(lp2679
sI900
(lp2680
sI901
(lp2681
sI902
(lp2682
sI903
(lp2683
sI904
(lp2684
sI905
(lp2685
sI906
(lp2686
sI907
(lp2687
sI908
(lp2688
sI909
(lp2689
sI910
(lp2690
sI911
(lp2691
sI912
(lp2692
sI913
(lp2693
(lp2694
S'ZINC03870277'
p2695
aS'k3'
p2696
aS'ZINC01532567'
p2697
aS'k1'
p2698
aS'ZINC03606137'
p2699
aS'k2'
p2700
aS'ZINC03870009'
p2701
aS'k4'
p2702
aS'ZINC30725157'
p2703
aa(lp2704
S'ZINC03870277'
p2705
aS'k3'
p2706
aS'ZINC01532567'
p2707
aS'k1'
p2708
aS'ZINC03606137'
p2709
aS'k2'
p2710
aS'ZINC03870009'
p2711
aS'k4'
p2712
aS'ZINC30725161'
p2713
aasI914
(lp2714
sI915
(lp2715
sI916
(lp2716
sI917
(lp2717
sI918
(lp2718
sI919
(lp2719
sI920
(lp2720
sI921
(lp2721
sI922
(lp2722
sI923
(lp2723
sI924
(lp2724
sI925
(lp2725
sI926
(lp2726
sI927
(lp2727
sI928
(lp2728
sI929
(lp2729
sI930
(lp2730
sI931
(lp2731
sI932
(lp2732
sI933
(lp2733
sI934
(lp2734
sI935
(lp2735
sI936
(lp2736
sI937
(lp2737
sI938
(lp2738
(lp2739
S'ZINC01532567'
p2740
aS'k1'
p2741
aS'ZINC03606137'
p2742
aS'k3'
p2743
aS'ZINC18168715'
p2744
aS'k2'
p2745
aS'ZINC03870005'
p2746
aS'k4'
p2747
aS'ZINC08215638'
p2748
aa(lp2749
S'ZINC01532567'
p2750
aS'k1'
p2751
aS'ZINC03606137'
p2752
aS'k3'
p2753
aS'ZINC18168715'
p2754
aS'k2'
p2755
aS'ZINC03870005'
p2756
aS'k4'
p2757
aS'ZINC30725157'
p2758
aa(lp2759
S'ZINC01532567'
p2760
aS'k1'
p2761
aS'ZINC03606137'
p2762
aS'k3'
p2763
aS'ZINC18168715'
p2764
aS'k2'
p2765
aS'ZINC02562361'
p2766
aS'k4'
p2767
aS'ZINC30725157'
p2768
aasI939
(lp2769
(lp2770
S'ZINC01532567'
p2771
aS'k3'
p2772
aS'ZINC00902225'
p2773
aS'k1'
p2774
aS'ZINC18168715'
p2775
aS'k2'
p2776
aS'ZINC02562361'
p2777
aS'k4'
p2778
aS'ZINC30725161'
p2779
aa(lp2780
S'ZINC01532567'
p2781
aS'k3'
p2782
aS'ZINC00902225'
p2783
aS'k1'
p2784
aS'ZINC18168715'
p2785
aS'k2'
p2786
aS'ZINC02562361'
p2787
aS'k4'
p2788
aS'ZINC30725157'
p2789
aa(lp2790
S'ZINC01532567'
p2791
aS'k3'
p2792
aS'ZINC00895279'
p2793
aS'k1'
p2794
aS'ZINC18168715'
p2795
aS'k2'
p2796
aS'ZINC02562361'
p2797
aS'k4'
p2798
aS'ZINC30725157'
p2799
aasI940
(lp2800
sI941
(lp2801
sI942
(lp2802
sI943
(lp2803
sI944
(lp2804
sI945
(lp2805
sI946
(lp2806
sI947
(lp2807
sI948
(lp2808
(lp2809
S'ZINC18140538'
p2810
aS'k3'
p2811
aS'ZINC03830876'
p2812
aS'k1'
p2813
aS'ZINC03830679'
p2814
aS'k2'
p2815
aS'ZINC02562361'
p2816
aS'k4'
p2817
aS'ZINC30725161'
p2818
aa(lp2819
S'ZINC04095539'
p2820
aS'k3'
p2821
aS'ZINC01532049'
p2822
aS'k1'
p2823
aS'ZINC03830679'
p2824
aS'k2'
p2825
aS'ZINC02562361'
p2826
aS'k4'
p2827
aS'ZINC30725157'
p2828
aa(lp2829
S'ZINC04096690'
p2830
aS'k3'
p2831
aS'ZINC01532049'
p2832
aS'k1'
p2833
aS'ZINC03830679'
p2834
aS'k2'
p2835
aS'ZINC02562361'
p2836
aS'k4'
p2837
aS'ZINC30725157'
p2838
aa(lp2839
S'ZINC04096690'
p2840
aS'k3'
p2841
aS'ZINC01532049'
p2842
aS'k1'
p2843
aS'ZINC03860903'
p2844
aS'k2'
p2845
aS'ZINC02562361'
p2846
aS'k4'
p2847
aS'ZINC30725157'
p2848
aa(lp2849
S'ZINC18140538'
p2850
aS'k3'
p2851
aS'ZINC01532049'
p2852
aS'k1'
p2853
aS'ZINC03860903'
p2854
aS'k2'
p2855
aS'ZINC02562361'
p2856
aS'k4'
p2857
aS'ZINC30725157'
p2858
aa(lp2859
S'ZINC18140538'
p2860
aS'k3'
p2861
aS'ZINC01532049'
p2862
aS'k1'
p2863
aS'ZINC03860903'
p2864
aS'k2'
p2865
aS'ZINC02562361'
p2866
aS'k4'
p2867
aS'ZINC30725161'
p2868
aa(lp2869
S'ZINC18140538'
p2870
aS'k3'
p2871
aS'ZINC01532049'
p2872
aS'k1'
p2873
aS'ZINC03830679'
p2874
aS'k2'
p2875
aS'ZINC02562361'
p2876
aS'k4'
p2877
aS'ZINC30725161'
p2878
aa(lp2879
S'ZINC18140538'
p2880
aS'k3'
p2881
aS'ZINC03830876'
p2882
aS'k1'
p2883
aS'ZINC03830679'
p2884
aS'k2'
p2885
aS'ZINC02562361'
p2886
aS'k4'
p2887
aS'ZINC30725157'
p2888
aa(lp2889
S'ZINC18140538'
p2890
aS'k3'
p2891
aS'ZINC03830876'
p2892
aS'k1'
p2893
aS'ZINC03860903'
p2894
aS'k2'
p2895
aS'ZINC02562361'
p2896
aS'k4'
p2897
aS'ZINC30725157'
p2898
aa(lp2899
S'ZINC18140538'
p2900
aS'k3'
p2901
aS'ZINC03830876'
p2902
aS'k1'
p2903
aS'ZINC03860903'
p2904
aS'k2'
p2905
aS'ZINC02562361'
p2906
aS'k4'
p2907
aS'ZINC30725161'
p2908
aasI949
(lp2909
sI950
(lp2910
sI951
(lp2911
sI952
(lp2912
sI953
(lp2913
(lp2914
S'ZINC01532567'
p2915
aS'k3'
p2916
aS'ZINC00902225'
p2917
aS'k1'
p2918
aS'ZINC18168715'
p2919
aS'k2'
p2920
aS'ZINC02562361'
p2921
aS'k4'
p2922
aS'ZINC30725161'
p2923
aa(lp2924
S'ZINC01532567'
p2925
aS'k3'
p2926
aS'ZINC00902225'
p2927
aS'k1'
p2928
aS'ZINC18168715'
p2929
aS'k2'
p2930
aS'ZINC02562361'
p2931
aS'k4'
p2932
aS'ZINC30725157'
p2933
aa(lp2934
S'ZINC01532567'
p2935
aS'k3'
p2936
aS'ZINC00895279'
p2937
aS'k1'
p2938
aS'ZINC18168715'
p2939
aS'k2'
p2940
aS'ZINC02562361'
p2941
aS'k4'
p2942
aS'ZINC30725157'
p2943
aa(lp2944
S'ZINC01532567'
p2945
aS'k3'
p2946
aS'ZINC00895279'
p2947
aS'k1'
p2948
aS'ZINC18168715'
p2949
aS'k2'
p2950
aS'ZINC02562361'
p2951
aS'k4'
p2952
aS'ZINC30725161'
p2953
aasI954
(lp2954
sI955
(lp2955
sI956
(lp2956
sI957
(lp2957
sI958
(lp2958
sI959
(lp2959
sI960
(lp2960
sI961
(lp2961
sI962
(lp2962
sI963
(lp2963
sI964
(lp2964
sI965
(lp2965
sI966
(lp2966
sI967
(lp2967
sI968
(lp2968
sI969
(lp2969
sI970
(lp2970
sI971
(lp2971
sI972
(lp2972
sI973
(lp2973
sI974
(lp2974
sI975
(lp2975
sI976
(lp2976
sI977
(lp2977
sI978
(lp2978
sI979
(lp2979
sI980
(lp2980
sI981
(lp2981
sI982
(lp2982
sI983
(lp2983
sI984
(lp2984
sI985
(lp2985
sI986
(lp2986
sI987
(lp2987
sI988
(lp2988
sI989
(lp2989
sI990
(lp2990
sI991
(lp2991
sI992
(lp2992
sI993
(lp2993
sI994
(lp2994
sI995
(lp2995
sI996
(lp2996
sI997
(lp2997
sI998
(lp2998
sI999
(lp2999
sI1000
(lp3000
sI1001
(lp3001
sI1002
(lp3002
sI1003
(lp3003
sI1004
(lp3004
sI1005
(lp3005
sI1006
(lp3006
sI1007
(lp3007
sI1008
(lp3008
(lp3009
S'ZINC56874962'
p3010
aS'k1'
p3011
aS'ZINC03606137'
p3012
aS'k3'
p3013
aS'ZINC18168715'
p3014
aS'k2'
p3015
aS'ZINC02562361'
p3016
aS'k4'
p3017
aS'ZINC30725161'
p3018
aa(lp3019
S'ZINC56874962'
p3020
aS'k1'
p3021
aS'ZINC03606137'
p3022
aS'k3'
p3023
aS'ZINC18168715'
p3024
aS'k2'
p3025
aS'ZINC02562361'
p3026
aS'k4'
p3027
aS'ZINC30725157'
p3028
aa(lp3029
S'ZINC01532567'
p3030
aS'k1'
p3031
aS'ZINC03606137'
p3032
aS'k3'
p3033
aS'ZINC18168715'
p3034
aS'k2'
p3035
aS'ZINC02562361'
p3036
aS'k4'
p3037
aS'ZINC30725161'
p3038
aasI1009
(lp3039
sI1010
(lp3040
sI1011
(lp3041
sI1012
(lp3042
sI1013
(lp3043
sI1014
(lp3044
sI1015
(lp3045
sI1016
(lp3046
sI1017
(lp3047
sI1018
(lp3048
sI1019
(lp3049
sI1020
(lp3050
sI1021
(lp3051
(lp3052
S'ZINC03869934'
p3053
aS'k3'
p3054
aS'ZINC00895140'
p3055
aS's1'
p3056
aS'ZINC01532558'
p3057
aS'k1'
p3058
aS'ZINC00895511'
p3059
aS'k2'
p3060
aS'ZINC01529791'
p3061
aasI1022
(lp3062
sI1023
(lp3063
sI1024
(lp3064
sI1025
(lp3065
sI1026
(lp3066
sI1027
(lp3067
sI1028
(lp3068
sI1029
(lp3069
sI1030
(lp3070
sI1031
(lp3071
sI1032
(lp3072
sI1033
(lp3073
sI1034
(lp3074
sI1035
(lp3075
sI1036
(lp3076
sI1037
(lp3077
sI1038
(lp3078
sI1039
(lp3079
sI1040
(lp3080
sI1041
(lp3081
sI1042
(lp3082
sI1043
(lp3083
sI1044
(lp3084
sI1045
(lp3085
sI1046
(lp3086
sI1047
(lp3087
sI1048
(lp3088
sI1049
(lp3089
sI1050
(lp3090
sI1051
(lp3091
sI1052
(lp3092
sI1053
(lp3093
sI1054
(lp3094
sI1055
(lp3095
sI1056
(lp3096
sI1057
(lp3097
sI1058
(lp3098
sI1059
(lp3099
sI1060
(lp3100
sI1061
(lp3101
sI1062
(lp3102
sI1063
(lp3103
sI1064
(lp3104
sI1065
(lp3105
(lp3106
S'ZINC56874962'
p3107
aS'k1'
p3108
aS'ZINC03606137'
p3109
aS'k3'
p3110
aS'ZINC18168715'
p3111
aS'k2'
p3112
aS'ZINC02562361'
p3113
aS'k4'
p3114
aS'ZINC30725161'
p3115
aa(lp3116
S'ZINC01532567'
p3117
aS'k1'
p3118
aS'ZINC03606137'
p3119
aS'k3'
p3120
aS'ZINC18168715'
p3121
aS'k2'
p3122
aS'ZINC02562361'
p3123
aS'k4'
p3124
aS'ZINC30725161'
p3125
aa(lp3126
S'ZINC01532567'
p3127
aS'k1'
p3128
aS'ZINC03606137'
p3129
aS'k3'
p3130
aS'ZINC18168715'
p3131
aS'k2'
p3132
aS'ZINC02562361'
p3133
aS'k4'
p3134
aS'ZINC30725157'
p3135
aasI1066
(lp3136
sI1067
(lp3137
sI1068
(lp3138
sI1069
(lp3139
sI1070
(lp3140
sI1071
(lp3141
sI1072
(lp3142
sI1073
(lp3143
sI1074
(lp3144
(lp3145
S'ZINC01532567'
p3146
aS'k1'
p3147
aS'ZINC03606137'
p3148
aS'k3'
p3149
aS'ZINC18168715'
p3150
aS'k2'
p3151
aS'ZINC02562361'
p3152
aS'k4'
p3153
aS'ZINC30725161'
p3154
aa(lp3155
S'ZINC01532567'
p3156
aS'k1'
p3157
aS'ZINC03606137'
p3158
aS'k3'
p3159
aS'ZINC18168715'
p3160
aS'k2'
p3161
aS'ZINC02562361'
p3162
aS'k4'
p3163
aS'ZINC30725157'
p3164
aasI1075
(lp3165
sI1076
(lp3166
sI1077
(lp3167
sI1078
(lp3168
sI1079
(lp3169
sI1080
(lp3170
sI1081
(lp3171
sI1082
(lp3172
sI1083
(lp3173
sI1084
(lp3174
sI1085
(lp3175
sI1086
(lp3176
(lp3177
S'ZINC56874962'
p3178
aS'k1'
p3179
aS'ZINC03606137'
p3180
aS'k3'
p3181
aS'ZINC18168715'
p3182
aS'k2'
p3183
aS'ZINC02562361'
p3184
aS'k4'
p3185
aS'ZINC30725161'
p3186
aa(lp3187
S'ZINC01532567'
p3188
aS'k1'
p3189
aS'ZINC03606137'
p3190
aS'k3'
p3191
aS'ZINC18168715'
p3192
aS'k2'
p3193
aS'ZINC02562361'
p3194
aS'k4'
p3195
aS'ZINC30725161'
p3196
aa(lp3197
S'ZINC01532567'
p3198
aS'k1'
p3199
aS'ZINC03606137'
p3200
aS'k3'
p3201
aS'ZINC18168715'
p3202
aS'k2'
p3203
aS'ZINC02562361'
p3204
aS'k4'
p3205
aS'ZINC30725157'
p3206
aasI1087
(lp3207
sI1088
(lp3208
sI1089
(lp3209
sI1090
(lp3210
sI1091
(lp3211
sI1092
(lp3212
sI1093
(lp3213
sI1094
(lp3214
sI1095
(lp3215
(lp3216
S'ZINC04095539'
p3217
aS'k3'
p3218
aS'ZINC01532049'
p3219
aS'k1'
p3220
aS'ZINC03830679'
p3221
aS'k2'
p3222
aS'ZINC02562361'
p3223
aS'k4'
p3224
aS'ZINC30725157'
p3225
aa(lp3226
S'ZINC18140538'
p3227
aS'k3'
p3228
aS'ZINC03830876'
p3229
aS'k1'
p3230
aS'ZINC03860903'
p3231
aS'k2'
p3232
aS'ZINC02562361'
p3233
aS'k4'
p3234
aS'ZINC30725161'
p3235
aa(lp3236
S'ZINC18140538'
p3237
aS'k3'
p3238
aS'ZINC03830876'
p3239
aS'k1'
p3240
aS'ZINC03830679'
p3241
aS'k2'
p3242
aS'ZINC02562361'
p3243
aS'k4'
p3244
aS'ZINC30725161'
p3245
aa(lp3246
S'ZINC18140538'
p3247
aS'k3'
p3248
aS'ZINC01532049'
p3249
aS'k1'
p3250
aS'ZINC03860903'
p3251
aS'k2'
p3252
aS'ZINC02562361'
p3253
aS'k4'
p3254
aS'ZINC30725161'
p3255
aa(lp3256
S'ZINC18140538'
p3257
aS'k3'
p3258
aS'ZINC01532049'
p3259
aS'k1'
p3260
aS'ZINC03860903'
p3261
aS'k2'
p3262
aS'ZINC02562361'
p3263
aS'k4'
p3264
aS'ZINC30725157'
p3265
aa(lp3266
S'ZINC18140538'
p3267
aS'k3'
p3268
aS'ZINC01532049'
p3269
aS'k1'
p3270
aS'ZINC03830679'
p3271
aS'k2'
p3272
aS'ZINC02562361'
p3273
aS'k4'
p3274
aS'ZINC30725161'
p3275
aasI1096
(lp3276
sI1097
(lp3277
sI1098
(lp3278
sI1099
(lp3279
sI1100
(lp3280
sI1101
(lp3281
sI1102
(lp3282
sI1103
(lp3283
sI1104
(lp3284
sI1105
(lp3285
sI1106
(lp3286
sI1107
(lp3287
sI1108
(lp3288
sI1109
(lp3289
sI1110
(lp3290
sI1111
(lp3291
sI1112
(lp3292
sI1113
(lp3293
sI1114
(lp3294
sI1115
(lp3295
sI1116
(lp3296
sI1117
(lp3297
sI1118
(lp3298
(lp3299
S'ZINC03870277'
p3300
aS'k3'
p3301
aS'ZINC01532567'
p3302
aS'k1'
p3303
aS'ZINC03606137'
p3304
aS'k2'
p3305
aS'ZINC03870009'
p3306
aS'k4'
p3307
aS'ZINC30725157'
p3308
aa(lp3309
S'ZINC03870277'
p3310
aS'k3'
p3311
aS'ZINC01532567'
p3312
aS'k1'
p3313
aS'ZINC03606137'
p3314
aS'k2'
p3315
aS'ZINC03870009'
p3316
aS'k4'
p3317
aS'ZINC30725161'
p3318
aasI1119
(lp3319
sI1120
(lp3320
sI1121
(lp3321
sI1122
(lp3322
sI1123
(lp3323
sI1124
(lp3324
sI1125
(lp3325
(lp3326
S'ZINC01532567'
p3327
aS'k3'
p3328
aS'ZINC00902225'
p3329
aS'k1'
p3330
aS'ZINC18168715'
p3331
aS'k2'
p3332
aS'ZINC02562361'
p3333
aS'k4'
p3334
aS'ZINC30725161'
p3335
aa(lp3336
S'ZINC01532567'
p3337
aS'k3'
p3338
aS'ZINC00902225'
p3339
aS'k1'
p3340
aS'ZINC18168715'
p3341
aS'k2'
p3342
aS'ZINC02562361'
p3343
aS'k4'
p3344
aS'ZINC30725157'
p3345
aa(lp3346
S'ZINC01532567'
p3347
aS'k3'
p3348
aS'ZINC00895279'
p3349
aS'k1'
p3350
aS'ZINC18168715'
p3351
aS'k2'
p3352
aS'ZINC02562361'
p3353
aS'k4'
p3354
aS'ZINC30725157'
p3355
aa(lp3356
S'ZINC01532567'
p3357
aS'k3'
p3358
aS'ZINC00895279'
p3359
aS'k1'
p3360
aS'ZINC18168715'
p3361
aS'k2'
p3362
aS'ZINC02562361'
p3363
aS'k4'
p3364
aS'ZINC30725161'
p3365
aasI1126
(lp3366
sI1127
(lp3367
sI1128
(lp3368
sI1129
(lp3369
sI1130
(lp3370
sI1131
(lp3371
sI1132
(lp3372
sI1133
(lp3373
sI1134
(lp3374
sI1135
(lp3375
sI1136
(lp3376
sI1137
(lp3377
sI1138
(lp3378
sI1139
(lp3379
sI1140
(lp3380
sI1141
(lp3381
sI1142
(lp3382
sI1143
(lp3383
sI1144
(lp3384
sI1145
(lp3385
sI1146
(lp3386
sI1147
(lp3387
sI1148
(lp3388
(lp3389
S'ZINC18140538'
p3390
aS'k3'
p3391
aS'ZINC01532049'
p3392
aS'k1'
p3393
aS'ZINC03830679'
p3394
aS'k2'
p3395
aS'ZINC02562361'
p3396
aS'k4'
p3397
aS'ZINC30725157'
p3398
aa(lp3399
S'ZINC04095539'
p3400
aS'k3'
p3401
aS'ZINC01532049'
p3402
aS'k1'
p3403
aS'ZINC03830679'
p3404
aS'k2'
p3405
aS'ZINC02562361'
p3406
aS'k4'
p3407
aS'ZINC30725157'
p3408
aa(lp3409
S'ZINC04096690'
p3410
aS'k3'
p3411
aS'ZINC01532049'
p3412
aS'k1'
p3413
aS'ZINC03830679'
p3414
aS'k2'
p3415
aS'ZINC02562361'
p3416
aS'k4'
p3417
aS'ZINC30725157'
p3418
aa(lp3419
S'ZINC18140538'
p3420
aS'k3'
p3421
aS'ZINC01532049'
p3422
aS'k1'
p3423
aS'ZINC03830679'
p3424
aS'k2'
p3425
aS'ZINC02562361'
p3426
aS'k4'
p3427
aS'ZINC30725161'
p3428
aa(lp3429
S'ZINC18140538'
p3430
aS'k3'
p3431
aS'ZINC03830876'
p3432
aS'k1'
p3433
aS'ZINC03830679'
p3434
aS'k2'
p3435
aS'ZINC02562361'
p3436
aS'k4'
p3437
aS'ZINC30725161'
p3438
aasI1149
(lp3439
sI1150
(lp3440
sI1151
(lp3441
sI1152
(lp3442
sI1153
(lp3443
sI1154
(lp3444
sI1155
(lp3445
sI1156
(lp3446
sI1157
(lp3447
(lp3448
S'ZINC18140538'
p3449
aS'k3'
p3450
aS'ZINC01532049'
p3451
aS'k1'
p3452
aS'ZINC03860903'
p3453
aS'k2'
p3454
aS'ZINC02562361'
p3455
aS'k4'
p3456
aS'ZINC30725157'
p3457
aa(lp3458
S'ZINC18140538'
p3459
aS'k3'
p3460
aS'ZINC01532049'
p3461
aS'k1'
p3462
aS'ZINC03830679'
p3463
aS'k2'
p3464
aS'ZINC02562361'
p3465
aS'k4'
p3466
aS'ZINC30725157'
p3467
aa(lp3468
S'ZINC18140538'
p3469
aS'k3'
p3470
aS'ZINC01532049'
p3471
aS'k1'
p3472
aS'ZINC03830679'
p3473
aS'k2'
p3474
aS'ZINC02562361'
p3475
aS'k4'
p3476
aS'ZINC30725161'
p3477
aa(lp3478
S'ZINC18140538'
p3479
aS'k3'
p3480
aS'ZINC01532049'
p3481
aS'k1'
p3482
aS'ZINC03860903'
p3483
aS'k2'
p3484
aS'ZINC02562361'
p3485
aS'k4'
p3486
aS'ZINC30725161'
p3487
aa(lp3488
S'ZINC18140538'
p3489
aS'k3'
p3490
aS'ZINC03830876'
p3491
aS'k1'
p3492
aS'ZINC03860903'
p3493
aS'k2'
p3494
aS'ZINC02562361'
p3495
aS'k4'
p3496
aS'ZINC30725161'
p3497
aa(lp3498
S'ZINC18140538'
p3499
aS'k3'
p3500
aS'ZINC03830876'
p3501
aS'k1'
p3502
aS'ZINC03830679'
p3503
aS'k2'
p3504
aS'ZINC02562361'
p3505
aS'k4'
p3506
aS'ZINC30725161'
p3507
aa(lp3508
S'ZINC18140538'
p3509
aS'k3'
p3510
aS'ZINC03830876'
p3511
aS'k1'
p3512
aS'ZINC03860903'
p3513
aS'k2'
p3514
aS'ZINC02562361'
p3515
aS'k4'
p3516
aS'ZINC30725157'
p3517
aa(lp3518
S'ZINC18140538'
p3519
aS'k3'
p3520
aS'ZINC03830876'
p3521
aS'k1'
p3522
aS'ZINC03830679'
p3523
aS'k2'
p3524
aS'ZINC02562361'
p3525
aS'k4'
p3526
aS'ZINC30725157'
p3527
aasI1158
(lp3528
sI1159
(lp3529
sI1160
(lp3530
sI1161
(lp3531
(lp3532
S'ZINC01532567'
p3533
aS'k3'
p3534
aS'ZINC00902225'
p3535
aS'k1'
p3536
aS'ZINC18168715'
p3537
aS'k2'
p3538
aS'ZINC02562361'
p3539
aS'k4'
p3540
aS'ZINC30725161'
p3541
aa(lp3542
S'ZINC01532567'
p3543
aS'k3'
p3544
aS'ZINC00902225'
p3545
aS'k1'
p3546
aS'ZINC18168715'
p3547
aS'k2'
p3548
aS'ZINC02562361'
p3549
aS'k4'
p3550
aS'ZINC30725157'
p3551
aa(lp3552
S'ZINC01532567'
p3553
aS'k3'
p3554
aS'ZINC00895279'
p3555
aS'k1'
p3556
aS'ZINC18168715'
p3557
aS'k2'
p3558
aS'ZINC02562361'
p3559
aS'k4'
p3560
aS'ZINC30725157'
p3561
aasI1162
(lp3562
sI1163
(lp3563
sI1164
(lp3564
sI1165
(lp3565
sI1166
(lp3566
sI1167
(lp3567
sI1168
(lp3568
sI1169
(lp3569
sI1170
(lp3570
sI1171
(lp3571
sI1172
(lp3572
sI1173
(lp3573
(lp3574
S'ZINC56874962'
p3575
aS'k1'
p3576
aS'ZINC03606137'
p3577
aS'k3'
p3578
aS'ZINC18168715'
p3579
aS'k2'
p3580
aS'ZINC02562361'
p3581
aS'k4'
p3582
aS'ZINC30725161'
p3583
aa(lp3584
S'ZINC56874962'
p3585
aS'k1'
p3586
aS'ZINC03606137'
p3587
aS'k3'
p3588
aS'ZINC18168715'
p3589
aS'k2'
p3590
aS'ZINC02562361'
p3591
aS'k4'
p3592
aS'ZINC30725157'
p3593
aa(lp3594
S'ZINC01532567'
p3595
aS'k1'
p3596
aS'ZINC03606137'
p3597
aS'k3'
p3598
aS'ZINC18168715'
p3599
aS'k2'
p3600
aS'ZINC02562361'
p3601
aS'k4'
p3602
aS'ZINC30725157'
p3603
aa(lp3604
S'ZINC01532567'
p3605
aS'k1'
p3606
aS'ZINC03606137'
p3607
aS'k3'
p3608
aS'ZINC18168715'
p3609
aS'k2'
p3610
aS'ZINC02562361'
p3611
aS'k4'
p3612
aS'ZINC30725161'
p3613
aasI1174
(lp3614
sI1175
(lp3615
sI1176
(lp3616
sI1177
(lp3617
sI1178
(lp3618
sI1179
(lp3619
sI1180
(lp3620
sI1181
(lp3621
sI1182
(lp3622
sI1183
(lp3623
sI1184
(lp3624
sI1185
(lp3625
sI1186
(lp3626
sI1187
(lp3627
sI1188
(lp3628
sI1189
(lp3629
sI1190
(lp3630
sI1191
(lp3631
(lp3632
S'ZINC01532567'
p3633
aS'k3'
p3634
aS'ZINC00895279'
p3635
aS'k1'
p3636
aS'ZINC18168715'
p3637
aS'k2'
p3638
aS'ZINC02562361'
p3639
aS'k4'
p3640
aS'ZINC30725157'
p3641
aa(lp3642
S'ZINC01532567'
p3643
aS'k3'
p3644
aS'ZINC00895279'
p3645
aS'k1'
p3646
aS'ZINC18168715'
p3647
aS'k2'
p3648
aS'ZINC02562361'
p3649
aS'k4'
p3650
aS'ZINC30725161'
p3651
aa(lp3652
S'ZINC01532567'
p3653
aS'k3'
p3654
aS'ZINC00902225'
p3655
aS'k1'
p3656
aS'ZINC18168715'
p3657
aS'k2'
p3658
aS'ZINC02562361'
p3659
aS'k4'
p3660
aS'ZINC30725161'
p3661
aa(lp3662
S'ZINC01532567'
p3663
aS'k3'
p3664
aS'ZINC00902225'
p3665
aS'k1'
p3666
aS'ZINC18168715'
p3667
aS'k2'
p3668
aS'ZINC02562361'
p3669
aS'k4'
p3670
aS'ZINC30725157'
p3671
aasI1192
(lp3672
sI1193
(lp3673
sI1194
(lp3674
sI1195
(lp3675
sI1196
(lp3676
sI1197
(lp3677
sI1198
(lp3678
(lp3679
S'ZINC01532567'
p3680
aS'k1'
p3681
aS'ZINC03606137'
p3682
aS'k3'
p3683
aS'ZINC18168715'
p3684
aS'k2'
p3685
aS'ZINC03870005'
p3686
aS'k4'
p3687
aS'ZINC30320686'
p3688
aa(lp3689
S'ZINC01532567'
p3690
aS'k1'
p3691
aS'ZINC03606137'
p3692
aS'k3'
p3693
aS'ZINC18168715'
p3694
aS'k2'
p3695
aS'ZINC03870005'
p3696
aS'k4'
p3697
aS'ZINC30725157'
p3698
aa(lp3699
S'ZINC01532567'
p3700
aS'k1'
p3701
aS'ZINC03606137'
p3702
aS'k3'
p3703
aS'ZINC18168715'
p3704
aS'k2'
p3705
aS'ZINC02562361'
p3706
aS'k4'
p3707
aS'ZINC30725157'
p3708
aa(lp3709
S'ZINC01532567'
p3710
aS'k1'
p3711
aS'ZINC03606137'
p3712
aS'k3'
p3713
aS'ZINC18168715'
p3714
aS'k2'
p3715
aS'ZINC02562361'
p3716
aS'k4'
p3717
aS'ZINC30725161'
p3718
aasI1199
(lp3719
sI1200
(lp3720
sI1201
(lp3721
sI1202
(lp3722
sI1203
(lp3723
sI1204
(lp3724
sI1205
(lp3725
sI1206
(lp3726
sI1207
(lp3727
sI1208
(lp3728
sI1209
(lp3729
sI1210
(lp3730
sI1211
(lp3731
sI1212
(lp3732
(lp3733
S'ZINC03870277'
p3734
aS'k3'
p3735
aS'ZINC01532567'
p3736
aS'k1'
p3737
aS'ZINC03606137'
p3738
aS'k2'
p3739
aS'ZINC03870009'
p3740
aS'k4'
p3741
aS'ZINC30725161'
p3742
aa(lp3743
S'ZINC03870277'
p3744
aS'k3'
p3745
aS'ZINC01532567'
p3746
aS'k1'
p3747
aS'ZINC03606137'
p3748
aS'k2'
p3749
aS'ZINC03870009'
p3750
aS'k4'
p3751
aS'ZINC30725157'
p3752
aasI1213
(lp3753
sI1214
(lp3754
sI1215
(lp3755
sI1216
(lp3756
(lp3757
S'ZINC01532567'
p3758
aS'k3'
p3759
aS'ZINC00902225'
p3760
aS'k1'
p3761
aS'ZINC18168715'
p3762
aS'k2'
p3763
aS'ZINC03870005'
p3764
aS'k4'
p3765
aS'ZINC30725157'
p3766
aa(lp3767
S'ZINC01532567'
p3768
aS'k3'
p3769
aS'ZINC00895279'
p3770
aS'k1'
p3771
aS'ZINC18168715'
p3772
aS'k2'
p3773
aS'ZINC03870005'
p3774
aS'k4'
p3775
aS'ZINC30725157'
p3776
aa(lp3777
S'ZINC01532567'
p3778
aS'k3'
p3779
aS'ZINC00902225'
p3780
aS'k1'
p3781
aS'ZINC18168715'
p3782
aS'k2'
p3783
aS'ZINC03870005'
p3784
aS'k4'
p3785
aS'ZINC30725161'
p3786
aa(lp3787
S'ZINC01532567'
p3788
aS'k3'
p3789
aS'ZINC00895279'
p3790
aS'k1'
p3791
aS'ZINC18168715'
p3792
aS'k2'
p3793
aS'ZINC03870005'
p3794
aS'k4'
p3795
aS'ZINC30725161'
p3796
aa(lp3797
S'ZINC01532567'
p3798
aS'k3'
p3799
aS'ZINC00895279'
p3800
aS'k1'
p3801
aS'ZINC18168715'
p3802
aS'k2'
p3803
aS'ZINC02562361'
p3804
aS'k4'
p3805
aS'ZINC30725161'
p3806
aa(lp3807
S'ZINC01532567'
p3808
aS'k3'
p3809
aS'ZINC00902225'
p3810
aS'k1'
p3811
aS'ZINC18168715'
p3812
aS'k2'
p3813
aS'ZINC02562361'
p3814
aS'k4'
p3815
aS'ZINC30725161'
p3816
aa(lp3817
S'ZINC01532567'
p3818
aS'k3'
p3819
aS'ZINC00902225'
p3820
aS'k1'
p3821
aS'ZINC18168715'
p3822
aS'k2'
p3823
aS'ZINC02562361'
p3824
aS'k4'
p3825
aS'ZINC30725157'
p3826
aasI1217
(lp3827
sI1218
(lp3828
sI1219
(lp3829
sI1220
(lp3830
sI1221
(lp3831
sI1222
(lp3832
sI1223
(lp3833
sI1224
(lp3834
sI1225
(lp3835
sI1226
(lp3836
sI1227
(lp3837
sI1228
(lp3838
sI1229
(lp3839
(lp3840
S'ZINC18140538'
p3841
aS'k3'
p3842
aS'ZINC03830876'
p3843
aS'k1'
p3844
aS'ZINC03860903'
p3845
aS'k2'
p3846
aS'ZINC02562361'
p3847
aS'k4'
p3848
aS'ZINC30725161'
p3849
aa(lp3850
S'ZINC18140538'
p3851
aS'k3'
p3852
aS'ZINC03830876'
p3853
aS'k1'
p3854
aS'ZINC03830679'
p3855
aS'k2'
p3856
aS'ZINC02562361'
p3857
aS'k4'
p3858
aS'ZINC30725161'
p3859
aasI1230
(lp3860
sI1231
(lp3861
sI1232
(lp3862
sI1233
(lp3863
sI1234
(lp3864
sI1235
(lp3865
sI1236
(lp3866
sI1237
(lp3867
sI1238
(lp3868
sI1239
(lp3869
sI1240
(lp3870
sI1241
(lp3871
sI1242
(lp3872
sI1243
(lp3873
sI1244
(lp3874
sI1245
(lp3875
sI1246
(lp3876
sI1247
(lp3877
sI1248
(lp3878
sI1249
(lp3879
sI1250
(lp3880
sI1251
(lp3881
sI1252
(lp3882
sI1253
(lp3883
sI1254
(lp3884
sI1255
(lp3885
sI1256
(lp3886
sI1257
(lp3887
sI1258
(lp3888
sI1259
(lp3889
sI1260
(lp3890
sI1261
(lp3891
sI1262
(lp3892
sI1263
(lp3893
sI1264
(lp3894
sI1265
(lp3895
sI1266
(lp3896
sI1267
(lp3897
sI1268
(lp3898
(lp3899
S'ZINC01532567'
p3900
aS'k1'
p3901
aS'ZINC03606137'
p3902
aS'k3'
p3903
aS'ZINC18168715'
p3904
aS'k2'
p3905
aS'ZINC03870005'
p3906
aS'k4'
p3907
aS'ZINC30725157'
p3908
aa(lp3909
S'ZINC01532567'
p3910
aS'k1'
p3911
aS'ZINC03606137'
p3912
aS'k3'
p3913
aS'ZINC18168715'
p3914
aS'k2'
p3915
aS'ZINC03870005'
p3916
aS'k4'
p3917
aS'ZINC30725161'
p3918
aa(lp3919
S'ZINC01532567'
p3920
aS'k1'
p3921
aS'ZINC03606137'
p3922
aS'k3'
p3923
aS'ZINC18168715'
p3924
aS'k2'
p3925
aS'ZINC02562361'
p3926
aS'k4'
p3927
aS'ZINC30725161'
p3928
aa(lp3929
S'ZINC01532567'
p3930
aS'k1'
p3931
aS'ZINC03606137'
p3932
aS'k3'
p3933
aS'ZINC18168715'
p3934
aS'k2'
p3935
aS'ZINC02562361'
p3936
aS'k4'
p3937
aS'ZINC30725157'
p3938
aasI1269
(lp3939
sI1270
(lp3940
sI1271
(lp3941
sI1272
(lp3942
sI1273
(lp3943
sI1274
(lp3944
sI1275
(lp3945
sI1276
(lp3946
sI1277
(lp3947
sI1278
(lp3948
sI1279
(lp3949
sI1280
(lp3950
sI1281
(lp3951
sI1282
(lp3952
sI1283
(lp3953
(lp3954
S'ZINC03869936'
p3955
aS'k2'
p3956
aS'ZINC01529165'
p3957
aS'k3'
p3958
aS'ZINC01532568'
p3959
aS's1'
p3960
aS'ZINC01529927'
p3961
aS'k1'
p3962
aS'ZINC01529842'
p3963
aa(lp3964
S'ZINC03869936'
p3965
aS'k2'
p3966
aS'ZINC01529165'
p3967
aS'k3'
p3968
aS'ZINC01532568'
p3969
aS's1'
p3970
aS'ZINC01529842'
p3971
aS'k1'
p3972
aS'ZINC01529927'
p3973
aa(lp3974
S'ZINC03869936'
p3975
aS'k2'
p3976
aS'ZINC01529165'
p3977
aS'k3'
p3978
aS'ZINC01532568'
p3979
aS's1'
p3980
aS'ZINC01529927'
p3981
aS'k1'
p3982
aS'ZINC01529844'
p3983
aasI1284
(lp3984
sI1285
(lp3985
sI1286
(lp3986
sI1287
(lp3987
(lp3988
S'ZINC01532567'
p3989
aS'k3'
p3990
aS'ZINC00902225'
p3991
aS'k1'
p3992
aS'ZINC18168715'
p3993
aS'k2'
p3994
aS'ZINC02562361'
p3995
aS'k4'
p3996
aS'ZINC30725157'
p3997
aa(lp3998
S'ZINC01532567'
p3999
aS'k3'
p4000
aS'ZINC00902225'
p4001
aS'k1'
p4002
aS'ZINC18168715'
p4003
aS'k2'
p4004
aS'ZINC02562361'
p4005
aS'k4'
p4006
aS'ZINC30725161'
p4007
aasI1288
(lp4008
sI1289
(lp4009
sI1290
(lp4010
sI1291
(lp4011
sI1292
(lp4012
sI1293
(lp4013
sI1294
(lp4014
sI1295
(lp4015
sI1296
(lp4016
sI1297
(lp4017
sI1298
(lp4018
sI1299
(lp4019
sI1300
(lp4020
sI1301
(lp4021
sI1302
(lp4022
sI1303
(lp4023
sI1304
(lp4024
sI1305
(lp4025
sI1306
(lp4026
(lp4027
S'ZINC01532567'
p4028
aS'k1'
p4029
aS'ZINC03606137'
p4030
aS'k2'
p4031
aS'ZINC03870009'
p4032
aS'k3'
p4033
aS'ZINC02562361'
p4034
aS'k4'
p4035
aS'ZINC30725157'
p4036
aa(lp4037
S'ZINC01532567'
p4038
aS'k1'
p4039
aS'ZINC03606137'
p4040
aS'k2'
p4041
aS'ZINC03870009'
p4042
aS'k3'
p4043
aS'ZINC02562361'
p4044
aS'k4'
p4045
aS'ZINC30725161'
p4046
aasI1307
(lp4047
sI1308
(lp4048
sI1309
(lp4049
sI1310
(lp4050
sI1311
(lp4051
sI1312
(lp4052
sI1313
(lp4053
sI1314
(lp4054
sI1315
(lp4055
sI1316
(lp4056
sI1317
(lp4057
sI1318
(lp4058
sI1319
(lp4059
sI1320
(lp4060
sI1321
(lp4061
sI1322
(lp4062
sI1323
(lp4063
sI1324
(lp4064
sI1325
(lp4065
(lp4066
S'ZINC01532567'
p4067
aS'k1'
p4068
aS'ZINC03606137'
p4069
aS'k2'
p4070
aS'ZINC03870009'
p4071
aS'k3'
p4072
aS'ZINC02562361'
p4073
aS'k4'
p4074
aS'ZINC30725157'
p4075
aa(lp4076
S'ZINC01532567'
p4077
aS'k1'
p4078
aS'ZINC03606137'
p4079
aS'k2'
p4080
aS'ZINC03870009'
p4081
aS'k3'
p4082
aS'ZINC02562361'
p4083
aS'k4'
p4084
aS'ZINC30725161'
p4085
aasI1326
(lp4086
sI1327
(lp4087
sI1328
(lp4088
sI1329
(lp4089
sI1330
(lp4090
sI1331
(lp4091
sI1332
(lp4092
sI1333
(lp4093
sI1334
(lp4094
sI1335
(lp4095
sI1336
(lp4096
sI1337
(lp4097
sI1338
(lp4098
sI1339
(lp4099
sI1340
(lp4100
sI1341
(lp4101
(lp4102
S'ZINC01532567'
p4103
aS'k3'
p4104
aS'ZINC00902225'
p4105
aS'k1'
p4106
aS'ZINC18168715'
p4107
aS'k2'
p4108
aS'ZINC02562361'
p4109
aS'k4'
p4110
aS'ZINC30725157'
p4111
aa(lp4112
S'ZINC01532567'
p4113
aS'k3'
p4114
aS'ZINC00895279'
p4115
aS'k1'
p4116
aS'ZINC18168715'
p4117
aS'k2'
p4118
aS'ZINC02562361'
p4119
aS'k4'
p4120
aS'ZINC30725157'
p4121
aa(lp4122
S'ZINC01532567'
p4123
aS'k3'
p4124
aS'ZINC00895279'
p4125
aS'k1'
p4126
aS'ZINC18168715'
p4127
aS'k2'
p4128
aS'ZINC02562361'
p4129
aS'k4'
p4130
aS'ZINC30725161'
p4131
aa(lp4132
S'ZINC01532567'
p4133
aS'k3'
p4134
aS'ZINC00902225'
p4135
aS'k1'
p4136
aS'ZINC18168715'
p4137
aS'k2'
p4138
aS'ZINC02562361'
p4139
aS'k4'
p4140
aS'ZINC30725161'
p4141
aasI1342
(lp4142
(lp4143
S'ZINC01532567'
p4144
aS'k3'
p4145
aS'ZINC00902225'
p4146
aS'k1'
p4147
aS'ZINC18168715'
p4148
aS'k2'
p4149
aS'ZINC02562361'
p4150
aS'k4'
p4151
aS'ZINC30725157'
p4152
aa(lp4153
S'ZINC01532567'
p4154
aS'k3'
p4155
aS'ZINC00902225'
p4156
aS'k1'
p4157
aS'ZINC18168715'
p4158
aS'k2'
p4159
aS'ZINC02562361'
p4160
aS'k4'
p4161
aS'ZINC30725161'
p4162
aasI1343
(lp4163
sI1344
(lp4164
sI1345
(lp4165
sI1346
(lp4166
sI1347
(lp4167
sI1348
(lp4168
(lp4169
S'ZINC18140538'
p4170
aS'k3'
p4171
aS'ZINC01532049'
p4172
aS'k1'
p4173
aS'ZINC03860903'
p4174
aS'k2'
p4175
aS'ZINC02562361'
p4176
aS'k4'
p4177
aS'ZINC30725157'
p4178
aa(lp4179
S'ZINC18140538'
p4180
aS'k3'
p4181
aS'ZINC03830876'
p4182
aS'k1'
p4183
aS'ZINC03860903'
p4184
aS'k2'
p4185
aS'ZINC02562361'
p4186
aS'k4'
p4187
aS'ZINC30725157'
p4188
aa(lp4189
S'ZINC18140538'
p4190
aS'k3'
p4191
aS'ZINC03830876'
p4192
aS'k1'
p4193
aS'ZINC03830679'
p4194
aS'k2'
p4195
aS'ZINC02562361'
p4196
aS'k4'
p4197
aS'ZINC30725157'
p4198
aa(lp4199
S'ZINC18140538'
p4200
aS'k3'
p4201
aS'ZINC03830876'
p4202
aS'k1'
p4203
aS'ZINC03830679'
p4204
aS'k2'
p4205
aS'ZINC02562361'
p4206
aS'k4'
p4207
aS'ZINC30725161'
p4208
aa(lp4209
S'ZINC18140538'
p4210
aS'k3'
p4211
aS'ZINC01532049'
p4212
aS'k1'
p4213
aS'ZINC03860903'
p4214
aS'k2'
p4215
aS'ZINC02562361'
p4216
aS'k4'
p4217
aS'ZINC30725161'
p4218
aasI1349
(lp4219
sI1350
(lp4220
sI1351
(lp4221
sI1352
(lp4222
sI1353
(lp4223
sI1354
(lp4224
sI1355
(lp4225
sI1356
(lp4226
sI1357
(lp4227
sI1358
(lp4228
sI1359
(lp4229
(lp4230
S'ZINC01532567'
p4231
aS'k3'
p4232
aS'ZINC00902225'
p4233
aS'k1'
p4234
aS'ZINC18168715'
p4235
aS'k2'
p4236
aS'ZINC03870005'
p4237
aS'k4'
p4238
aS'ZINC30725161'
p4239
aa(lp4240
S'ZINC01532567'
p4241
aS'k3'
p4242
aS'ZINC00902225'
p4243
aS'k1'
p4244
aS'ZINC18168715'
p4245
aS'k2'
p4246
aS'ZINC02562361'
p4247
aS'k4'
p4248
aS'ZINC30725161'
p4249
aa(lp4250
S'ZINC01532567'
p4251
aS'k3'
p4252
aS'ZINC00902225'
p4253
aS'k1'
p4254
aS'ZINC18168715'
p4255
aS'k2'
p4256
aS'ZINC02562361'
p4257
aS'k4'
p4258
aS'ZINC30725157'
p4259
aa(lp4260
S'ZINC01532567'
p4261
aS'k3'
p4262
aS'ZINC00895279'
p4263
aS'k1'
p4264
aS'ZINC18168715'
p4265
aS'k2'
p4266
aS'ZINC02562361'
p4267
aS'k4'
p4268
aS'ZINC30725161'
p4269
aasI1360
(lp4270
sI1361
(lp4271
(lp4272
S'ZINC18140538'
p4273
aS'k3'
p4274
aS'ZINC01532049'
p4275
aS'k1'
p4276
aS'ZINC03860903'
p4277
aS'k2'
p4278
aS'ZINC02562361'
p4279
aS'k4'
p4280
aS'ZINC30725161'
p4281
aa(lp4282
S'ZINC18140538'
p4283
aS'k3'
p4284
aS'ZINC01532049'
p4285
aS'k1'
p4286
aS'ZINC03860903'
p4287
aS'k2'
p4288
aS'ZINC02562361'
p4289
aS'k4'
p4290
aS'ZINC30725157'
p4291
aa(lp4292
S'ZINC18140538'
p4293
aS'k3'
p4294
aS'ZINC01532049'
p4295
aS'k1'
p4296
aS'ZINC03830679'
p4297
aS'k2'
p4298
aS'ZINC02562361'
p4299
aS'k4'
p4300
aS'ZINC30725157'
p4301
aa(lp4302
S'ZINC18140538'
p4303
aS'k3'
p4304
aS'ZINC03830876'
p4305
aS'k1'
p4306
aS'ZINC03830679'
p4307
aS'k2'
p4308
aS'ZINC02562361'
p4309
aS'k4'
p4310
aS'ZINC30725157'
p4311
aa(lp4312
S'ZINC18140538'
p4313
aS'k3'
p4314
aS'ZINC03830876'
p4315
aS'k1'
p4316
aS'ZINC03860903'
p4317
aS'k2'
p4318
aS'ZINC02562361'
p4319
aS'k4'
p4320
aS'ZINC30725157'
p4321
aa(lp4322
S'ZINC18140538'
p4323
aS'k3'
p4324
aS'ZINC01532049'
p4325
aS'k1'
p4326
aS'ZINC03830679'
p4327
aS'k2'
p4328
aS'ZINC02562361'
p4329
aS'k4'
p4330
aS'ZINC30725161'
p4331
aasI1362
(lp4332
sI1363
(lp4333
sI1364
(lp4334
sI1365
(lp4335
sI1366
(lp4336
sI1367
(lp4337
sI1368
(lp4338
sI1369
(lp4339
sI1370
(lp4340
sI1371
(lp4341
sI1372
(lp4342
sI1373
(lp4343
sI1374
(lp4344
sI1375
(lp4345
sI1376
(lp4346
sI1377
(lp4347
sI1378
(lp4348
sI1379
(lp4349
sI1380
(lp4350
(lp4351
S'ZINC18140538'
p4352
aS'k3'
p4353
aS'ZINC01532049'
p4354
aS'k1'
p4355
aS'ZINC03830679'
p4356
aS'k2'
p4357
aS'ZINC02562361'
p4358
aS'k4'
p4359
aS'ZINC30725161'
p4360
aa(lp4361
S'ZINC18140538'
p4362
aS'k3'
p4363
aS'ZINC01532049'
p4364
aS'k1'
p4365
aS'ZINC03860903'
p4366
aS'k2'
p4367
aS'ZINC02562361'
p4368
aS'k4'
p4369
aS'ZINC30725161'
p4370
aa(lp4371
S'ZINC18140538'
p4372
aS'k3'
p4373
aS'ZINC03830876'
p4374
aS'k1'
p4375
aS'ZINC03830679'
p4376
aS'k2'
p4377
aS'ZINC02562361'
p4378
aS'k4'
p4379
aS'ZINC30725161'
p4380
aa(lp4381
S'ZINC18140538'
p4382
aS'k3'
p4383
aS'ZINC03830876'
p4384
aS'k1'
p4385
aS'ZINC03860903'
p4386
aS'k2'
p4387
aS'ZINC02562361'
p4388
aS'k4'
p4389
aS'ZINC30725161'
p4390
aa(lp4391
S'ZINC04095539'
p4392
aS'k3'
p4393
aS'ZINC01532049'
p4394
aS'k1'
p4395
aS'ZINC03860903'
p4396
aS'k2'
p4397
aS'ZINC02562361'
p4398
aS'k4'
p4399
aS'ZINC30725157'
p4400
aa(lp4401
S'ZINC04096690'
p4402
aS'k3'
p4403
aS'ZINC01532049'
p4404
aS'k1'
p4405
aS'ZINC03860903'
p4406
aS'k2'
p4407
aS'ZINC02562361'
p4408
aS'k4'
p4409
aS'ZINC30725157'
p4410
aa(lp4411
S'ZINC18140538'
p4412
aS'k3'
p4413
aS'ZINC01532049'
p4414
aS'k1'
p4415
aS'ZINC03860903'
p4416
aS'k2'
p4417
aS'ZINC02562361'
p4418
aS'k4'
p4419
aS'ZINC30725157'
p4420
aa(lp4421
S'ZINC18140538'
p4422
aS'k3'
p4423
aS'ZINC03830876'
p4424
aS'k1'
p4425
aS'ZINC03860903'
p4426
aS'k2'
p4427
aS'ZINC02562361'
p4428
aS'k4'
p4429
aS'ZINC30725157'
p4430
aasI1381
(lp4431
sI1382
(lp4432
sI1383
(lp4433
sI1384
(lp4434
sI1385
(lp4435
sI1386
(lp4436
sI1387
(lp4437
(lp4438
S'ZINC01532567'
p4439
aS'k3'
p4440
aS'ZINC00902225'
p4441
aS'k1'
p4442
aS'ZINC18168715'
p4443
aS'k2'
p4444
aS'ZINC02562361'
p4445
aS'k4'
p4446
aS'ZINC30725157'
p4447
aa(lp4448
S'ZINC01532567'
p4449
aS'k3'
p4450
aS'ZINC00902225'
p4451
aS'k1'
p4452
aS'ZINC18168715'
p4453
aS'k2'
p4454
aS'ZINC02562361'
p4455
aS'k4'
p4456
aS'ZINC30725161'
p4457
aa(lp4458
S'ZINC01532567'
p4459
aS'k3'
p4460
aS'ZINC00895279'
p4461
aS'k1'
p4462
aS'ZINC18168715'
p4463
aS'k2'
p4464
aS'ZINC02562361'
p4465
aS'k4'
p4466
aS'ZINC30725161'
p4467
aa(lp4468
S'ZINC01532567'
p4469
aS'k3'
p4470
aS'ZINC00895279'
p4471
aS'k1'
p4472
aS'ZINC18168715'
p4473
aS'k2'
p4474
aS'ZINC02562361'
p4475
aS'k4'
p4476
aS'ZINC30725157'
p4477
aasI1388
(lp4478
sI1389
(lp4479
sI1390
(lp4480
sI1391
(lp4481
sI1392
(lp4482
sI1393
(lp4483
sI1394
(lp4484
sI1395
(lp4485
sI1396
(lp4486
sI1397
(lp4487
sI1398
(lp4488
sI1399
(lp4489
sI1400
(lp4490
sI1401
(lp4491
sI1402
(lp4492
sI1403
(lp4493
sI1404
(lp4494
sI1405
(lp4495
sI1406
(lp4496
sI1407
(lp4497
sI1408
(lp4498
sI1409
(lp4499
sI1410
(lp4500
sI1411
(lp4501
sI1412
(lp4502
sI1413
(lp4503
sI1414
(lp4504
sI1415
(lp4505
sI1416
(lp4506
sI1417
(lp4507
sI1418
(lp4508
(lp4509
S'ZINC01532567'
p4510
aS'k1'
p4511
aS'ZINC03606137'
p4512
aS'k3'
p4513
aS'ZINC18168715'
p4514
aS'k2'
p4515
aS'ZINC02562361'
p4516
aS'k4'
p4517
aS'ZINC30725161'
p4518
aa(lp4519
S'ZINC01532567'
p4520
aS'k1'
p4521
aS'ZINC03606137'
p4522
aS'k3'
p4523
aS'ZINC18168715'
p4524
aS'k2'
p4525
aS'ZINC02562361'
p4526
aS'k4'
p4527
aS'ZINC30725157'
p4528
aasI1419
(lp4529
sI1420
(lp4530
sI1421
(lp4531
sI1422
(lp4532
sI1423
(lp4533
sI1424
(lp4534
sI1425
(lp4535
sI1426
(lp4536
sI1427
(lp4537
sI1428
(lp4538
(lp4539
S'ZINC56874962'
p4540
aS'k1'
p4541
aS'ZINC03606137'
p4542
aS'k3'
p4543
aS'ZINC18168715'
p4544
aS'k2'
p4545
aS'ZINC02562361'
p4546
aS'k4'
p4547
aS'ZINC30725157'
p4548
aa(lp4549
S'ZINC01532567'
p4550
aS'k1'
p4551
aS'ZINC03606137'
p4552
aS'k3'
p4553
aS'ZINC18168715'
p4554
aS'k2'
p4555
aS'ZINC02562361'
p4556
aS'k4'
p4557
aS'ZINC30725157'
p4558
aa(lp4559
S'ZINC01532567'
p4560
aS'k1'
p4561
aS'ZINC03606137'
p4562
aS'k3'
p4563
aS'ZINC18168715'
p4564
aS'k2'
p4565
aS'ZINC02562361'
p4566
aS'k4'
p4567
aS'ZINC30725161'
p4568
aasI1429
(lp4569
sI1430
(lp4570
sI1431
(lp4571
sI1432
(lp4572
sI1433
(lp4573
sI1434
(lp4574
sI1435
(lp4575
sI1436
(lp4576
sI1437
(lp4577
sI1438
(lp4578
sI1439
(lp4579
sI1440
(lp4580
sI1441
(lp4581
sI1442
(lp4582
sI1443
(lp4583
sI1444
(lp4584
(lp4585
S'ZINC01532567'
p4586
aS'k3'
p4587
aS'ZINC00902225'
p4588
aS'k1'
p4589
aS'ZINC18168715'
p4590
aS'k2'
p4591
aS'ZINC02562361'
p4592
aS'k4'
p4593
aS'ZINC30725161'
p4594
aa(lp4595
S'ZINC01532567'
p4596
aS'k3'
p4597
aS'ZINC00902225'
p4598
aS'k1'
p4599
aS'ZINC18168715'
p4600
aS'k2'
p4601
aS'ZINC02562361'
p4602
aS'k4'
p4603
aS'ZINC30725157'
p4604
aasI1445
(lp4605
sI1446
(lp4606
sI1447
(lp4607
sI1448
(lp4608
sI1449
(lp4609
sI1450
(lp4610
sI1451
(lp4611
sI1452
(lp4612
sI1453
(lp4613
sI1454
(lp4614
sI1455
(lp4615
sI1456
(lp4616
sI1457
(lp4617
sI1458
(lp4618
sI1459
(lp4619
sI1460
(lp4620
sI1461
(lp4621
sI1462
(lp4622
sI1463
(lp4623
sI1464
(lp4624
sI1465
(lp4625
sI1466
(lp4626
sI1467
(lp4627
sI1468
(lp4628
sI1469
(lp4629
sI1470
(lp4630
sI1471
(lp4631
sI1472
(lp4632
sI1473
(lp4633
sI1474
(lp4634
sI1475
(lp4635
sI1476
(lp4636
sI1477
(lp4637
sI1478
(lp4638
sI1479
(lp4639
sI1480
(lp4640
sI1481
(lp4641
sI1482
(lp4642
sI1483
(lp4643
sI1484
(lp4644
sI1485
(lp4645
sI1486
(lp4646
sI1487
(lp4647
(lp4648
S'ZINC01532567'
p4649
aS'k3'
p4650
aS'ZINC00895279'
p4651
aS'k1'
p4652
aS'ZINC18168715'
p4653
aS'k2'
p4654
aS'ZINC02562361'
p4655
aS'k4'
p4656
aS'ZINC30725157'
p4657
aa(lp4658
S'ZINC01532567'
p4659
aS'k3'
p4660
aS'ZINC00902225'
p4661
aS'k1'
p4662
aS'ZINC18168715'
p4663
aS'k2'
p4664
aS'ZINC02562361'
p4665
aS'k4'
p4666
aS'ZINC30725157'
p4667
aa(lp4668
S'ZINC01532567'
p4669
aS'k3'
p4670
aS'ZINC00902225'
p4671
aS'k1'
p4672
aS'ZINC18168715'
p4673
aS'k2'
p4674
aS'ZINC02562361'
p4675
aS'k4'
p4676
aS'ZINC30725161'
p4677
aasI1488
(lp4678
sI1489
(lp4679
sI1490
(lp4680
sI1491
(lp4681
sI1492
(lp4682
sI1493
(lp4683
sI1494
(lp4684
sI1495
(lp4685
sI1496
(lp4686
sI1497
(lp4687
sI1498
(lp4688
sI1499
(lp4689
sI1500
(lp4690
sI1501
(lp4691
sI1502
(lp4692
sI1503
(lp4693
sI1504
(lp4694
sI1505
(lp4695
sI1506
(lp4696
sI1507
(lp4697
sI1508
(lp4698
sI1509
(lp4699
sI1510
(lp4700
sI1511
(lp4701
sI1512
(lp4702
sI1513
(lp4703
sI1514
(lp4704
sI1515
(lp4705
sI1516
(lp4706
sI1517
(lp4707
sI1518
(lp4708
sI1519
(lp4709
sI1520
(lp4710
sI1521
(lp4711
sI1522
(lp4712
sI1523
(lp4713
sI1524
(lp4714
sI1525
(lp4715
sI1526
(lp4716
sI1527
(lp4717
sI1528
(lp4718
sI1529
(lp4719
sI1530
(lp4720
sI1531
(lp4721
sI1532
(lp4722
sI1533
(lp4723
sI1534
(lp4724
sI1535
(lp4725
sI1536
(lp4726
sI1537
(lp4727
sI1538
(lp4728
sI1539
(lp4729
sI1540
(lp4730
(lp4731
S'ZINC01532567'
p4732
aS'k1'
p4733
aS'ZINC03606137'
p4734
aS'k3'
p4735
aS'ZINC18168715'
p4736
aS'k2'
p4737
aS'ZINC02562361'
p4738
aS'k4'
p4739
aS'ZINC30725157'
p4740
aa(lp4741
S'ZINC01532567'
p4742
aS'k1'
p4743
aS'ZINC03606137'
p4744
aS'k3'
p4745
aS'ZINC18168715'
p4746
aS'k2'
p4747
aS'ZINC02562361'
p4748
aS'k4'
p4749
aS'ZINC30725161'
p4750
aasI1541
(lp4751
sI1542
(lp4752
(lp4753
S'ZINC04096690'
p4754
aS'k3'
p4755
aS'ZINC01532049'
p4756
aS'k1'
p4757
aS'ZINC03860903'
p4758
aS'k2'
p4759
aS'ZINC02562361'
p4760
aS'k4'
p4761
aS'ZINC30725157'
p4762
aa(lp4763
S'ZINC18140538'
p4764
aS'k3'
p4765
aS'ZINC03830876'
p4766
aS'k1'
p4767
aS'ZINC03830679'
p4768
aS'k2'
p4769
aS'ZINC02562361'
p4770
aS'k4'
p4771
aS'ZINC30725157'
p4772
aa(lp4773
S'ZINC18140538'
p4774
aS'k3'
p4775
aS'ZINC03830876'
p4776
aS'k1'
p4777
aS'ZINC03860903'
p4778
aS'k2'
p4779
aS'ZINC02562361'
p4780
aS'k4'
p4781
aS'ZINC30725157'
p4782
aa(lp4783
S'ZINC18140538'
p4784
aS'k3'
p4785
aS'ZINC01532049'
p4786
aS'k1'
p4787
aS'ZINC03860903'
p4788
aS'k2'
p4789
aS'ZINC02562361'
p4790
aS'k4'
p4791
aS'ZINC30725157'
p4792
aa(lp4793
S'ZINC18140538'
p4794
aS'k3'
p4795
aS'ZINC01532049'
p4796
aS'k1'
p4797
aS'ZINC03860903'
p4798
aS'k2'
p4799
aS'ZINC02562361'
p4800
aS'k4'
p4801
aS'ZINC30725161'
p4802
aa(lp4803
S'ZINC18140538'
p4804
aS'k3'
p4805
aS'ZINC01532049'
p4806
aS'k1'
p4807
aS'ZINC03830679'
p4808
aS'k2'
p4809
aS'ZINC02562361'
p4810
aS'k4'
p4811
aS'ZINC30725157'
p4812
aasI1543
(lp4813
sI1544
(lp4814
sI1545
(lp4815
sI1546
(lp4816
(lp4817
S'ZINC01532567'
p4818
aS'k1'
p4819
aS'ZINC03606137'
p4820
aS'k3'
p4821
aS'ZINC18168715'
p4822
aS'k2'
p4823
aS'ZINC03870005'
p4824
aS'k4'
p4825
aS'ZINC08215638'
p4826
aa(lp4827
S'ZINC01532567'
p4828
aS'k1'
p4829
aS'ZINC03606137'
p4830
aS'k3'
p4831
aS'ZINC18168715'
p4832
aS'k2'
p4833
aS'ZINC03870005'
p4834
aS'k4'
p4835
aS'ZINC30725157'
p4836
aa(lp4837
S'ZINC01532567'
p4838
aS'k1'
p4839
aS'ZINC03606137'
p4840
aS'k3'
p4841
aS'ZINC18168715'
p4842
aS'k2'
p4843
aS'ZINC03870005'
p4844
aS'k4'
p4845
aS'ZINC30725161'
p4846
aa(lp4847
S'ZINC01532567'
p4848
aS'k1'
p4849
aS'ZINC03606137'
p4850
aS'k3'
p4851
aS'ZINC18168715'
p4852
aS'k2'
p4853
aS'ZINC02562361'
p4854
aS'k4'
p4855
aS'ZINC30725161'
p4856
aa(lp4857
S'ZINC01532567'
p4858
aS'k1'
p4859
aS'ZINC03606137'
p4860
aS'k3'
p4861
aS'ZINC18168715'
p4862
aS'k2'
p4863
aS'ZINC02562361'
p4864
aS'k4'
p4865
aS'ZINC30725157'
p4866
aasI1547
(lp4867
sI1548
(lp4868
sI1549
(lp4869
sI1550
(lp4870
sI1551
(lp4871
sI1552
(lp4872
sI1553
(lp4873
sI1554
(lp4874
sI1555
(lp4875
sI1556
(lp4876
sI1557
(lp4877
sI1558
(lp4878
sI1559
(lp4879
sI1560
(lp4880
(lp4881
S'ZINC18140538'
p4882
aS'k3'
p4883
aS'ZINC01532049'
p4884
aS'k1'
p4885
aS'ZINC03860903'
p4886
aS'k2'
p4887
aS'ZINC02562361'
p4888
aS'k4'
p4889
aS'ZINC30725161'
p4890
aa(lp4891
S'ZINC18140538'
p4892
aS'k3'
p4893
aS'ZINC01532049'
p4894
aS'k1'
p4895
aS'ZINC03830679'
p4896
aS'k2'
p4897
aS'ZINC02562361'
p4898
aS'k4'
p4899
aS'ZINC30725161'
p4900
aa(lp4901
S'ZINC18140538'
p4902
aS'k3'
p4903
aS'ZINC01532049'
p4904
aS'k1'
p4905
aS'ZINC03830679'
p4906
aS'k2'
p4907
aS'ZINC02562361'
p4908
aS'k4'
p4909
aS'ZINC30725157'
p4910
aa(lp4911
S'ZINC18140538'
p4912
aS'k3'
p4913
aS'ZINC01532049'
p4914
aS'k1'
p4915
aS'ZINC03860903'
p4916
aS'k2'
p4917
aS'ZINC02562361'
p4918
aS'k4'
p4919
aS'ZINC30725157'
p4920
aa(lp4921
S'ZINC18140538'
p4922
aS'k3'
p4923
aS'ZINC03830876'
p4924
aS'k1'
p4925
aS'ZINC03860903'
p4926
aS'k2'
p4927
aS'ZINC02562361'
p4928
aS'k4'
p4929
aS'ZINC30725157'
p4930
aa(lp4931
S'ZINC18140538'
p4932
aS'k3'
p4933
aS'ZINC03830876'
p4934
aS'k1'
p4935
aS'ZINC03830679'
p4936
aS'k2'
p4937
aS'ZINC02562361'
p4938
aS'k4'
p4939
aS'ZINC30725157'
p4940
aa(lp4941
S'ZINC18140538'
p4942
aS'k3'
p4943
aS'ZINC03830876'
p4944
aS'k1'
p4945
aS'ZINC03830679'
p4946
aS'k2'
p4947
aS'ZINC02562361'
p4948
aS'k4'
p4949
aS'ZINC30725161'
p4950
aa(lp4951
S'ZINC18140538'
p4952
aS'k3'
p4953
aS'ZINC03830876'
p4954
aS'k1'
p4955
aS'ZINC03860903'
p4956
aS'k2'
p4957
aS'ZINC02562361'
p4958
aS'k4'
p4959
aS'ZINC30725161'
p4960
aa(lp4961
S'ZINC04095539'
p4962
aS'k3'
p4963
aS'ZINC01532049'
p4964
aS'k1'
p4965
aS'ZINC03860903'
p4966
aS'k2'
p4967
aS'ZINC02562361'
p4968
aS'k4'
p4969
aS'ZINC30725157'
p4970
aasI1561
(lp4971
sI1562
(lp4972
sI1563
(lp4973
sI1564
(lp4974
sI1565
(lp4975
sI1566
(lp4976
sI1567
(lp4977
sI1568
(lp4978
sI1569
(lp4979
sI1570
(lp4980
sI1571
(lp4981
sI1572
(lp4982
sI1573
(lp4983
sI1574
(lp4984
sI1575
(lp4985
sI1576
(lp4986
sI1577
(lp4987
sI1578
(lp4988
sI1579
(lp4989
sI1580
(lp4990
sI1581
(lp4991
sI1582
(lp4992
sI1583
(lp4993
sI1584
(lp4994
sI1585
(lp4995
sI1586
(lp4996
sI1587
(lp4997
sI1588
(lp4998
sI1589
(lp4999
sI1590
(lp5000
sI1591
(lp5001
sI1592
(lp5002
sI1593
(lp5003
sI1594
(lp5004
sI1595
(lp5005
sI1596
(lp5006
sI1597
(lp5007
sI1598
(lp5008
sI1599
(lp5009
sI1600
(lp5010
sI1601
(lp5011
sI1602
(lp5012
sI1603
(lp5013
sI1604
(lp5014
sI1605
(lp5015
sI1606
(lp5016
sI1607
(lp5017
sI1608
(lp5018
sI1609
(lp5019
sI1610
(lp5020
sI1611
(lp5021
sI1612
(lp5022
sI1613
(lp5023
sI1614
(lp5024
sI1615
(lp5025
sI1616
(lp5026
sI1617
(lp5027
sI1618
(lp5028
sI1619
(lp5029
sI1620
(lp5030
sI1621
(lp5031
sI1622
(lp5032
sI1623
(lp5033
(lp5034
S'ZINC56874962'
p5035
aS'k1'
p5036
aS'ZINC03606137'
p5037
aS'k3'
p5038
aS'ZINC18168715'
p5039
aS'k2'
p5040
aS'ZINC02562361'
p5041
aS'k4'
p5042
aS'ZINC30725161'
p5043
aa(lp5044
S'ZINC56874962'
p5045
aS'k1'
p5046
aS'ZINC03606137'
p5047
aS'k3'
p5048
aS'ZINC18168715'
p5049
aS'k2'
p5050
aS'ZINC02562361'
p5051
aS'k4'
p5052
aS'ZINC30725157'
p5053
aa(lp5054
S'ZINC01532567'
p5055
aS'k1'
p5056
aS'ZINC03606137'
p5057
aS'k3'
p5058
aS'ZINC18168715'
p5059
aS'k2'
p5060
aS'ZINC02562361'
p5061
aS'k4'
p5062
aS'ZINC30725161'
p5063
aa(lp5064
S'ZINC01532567'
p5065
aS'k1'
p5066
aS'ZINC03606137'
p5067
aS'k3'
p5068
aS'ZINC18168715'
p5069
aS'k2'
p5070
aS'ZINC02562361'
p5071
aS'k4'
p5072
aS'ZINC30725157'
p5073
aasI1624
(lp5074
sI1625
(lp5075
sI1626
(lp5076
sI1627
(lp5077
sI1628
(lp5078
sI1629
(lp5079
sI1630
(lp5080
(lp5081
S'ZINC03870277'
p5082
aS'k3'
p5083
aS'ZINC01532567'
p5084
aS'k1'
p5085
aS'ZINC03606137'
p5086
aS'k2'
p5087
aS'ZINC03870009'
p5088
aS'k4'
p5089
aS'ZINC30725157'
p5090
aa(lp5091
S'ZINC03870277'
p5092
aS'k3'
p5093
aS'ZINC01532567'
p5094
aS'k1'
p5095
aS'ZINC03606137'
p5096
aS'k2'
p5097
aS'ZINC03870009'
p5098
aS'k4'
p5099
aS'ZINC30725161'
p5100
aasI1631
(lp5101
sI1632
(lp5102
sI1633
(lp5103
sI1634
(lp5104
sI1635
(lp5105
sI1636
(lp5106
sI1637
(lp5107
sI1638
(lp5108
sI1639
(lp5109
sI1640
(lp5110
(lp5111
S'ZINC01532567'
p5112
aS'k3'
p5113
aS'ZINC00902225'
p5114
aS'k1'
p5115
aS'ZINC18168715'
p5116
aS'k2'
p5117
aS'ZINC02562361'
p5118
aS'k4'
p5119
aS'ZINC30725157'
p5120
aa(lp5121
S'ZINC01532567'
p5122
aS'k3'
p5123
aS'ZINC00902225'
p5124
aS'k1'
p5125
aS'ZINC18168715'
p5126
aS'k2'
p5127
aS'ZINC02562361'
p5128
aS'k4'
p5129
aS'ZINC30725161'
p5130
aasI1641
(lp5131
sI1642
(lp5132
sI1643
(lp5133
sI1644
(lp5134
sI1645
(lp5135
sI1646
(lp5136
sI1647
(lp5137
sI1648
(lp5138
sI1649
(lp5139
sI1650
(lp5140
sI1651
(lp5141
sI1652
(lp5142
sI1653
(lp5143
sI1654
(lp5144
sI1655
(lp5145
sI1656
(lp5146
sI1657
(lp5147
(lp5148
S'ZINC56874962'
p5149
aS'k1'
p5150
aS'ZINC03606137'
p5151
aS'k3'
p5152
aS'ZINC18168715'
p5153
aS'k2'
p5154
aS'ZINC02562361'
p5155
aS'k4'
p5156
aS'ZINC30725157'
p5157
aa(lp5158
S'ZINC01532567'
p5159
aS'k1'
p5160
aS'ZINC03606137'
p5161
aS'k3'
p5162
aS'ZINC18168715'
p5163
aS'k2'
p5164
aS'ZINC02562361'
p5165
aS'k4'
p5166
aS'ZINC30725157'
p5167
aa(lp5168
S'ZINC01532567'
p5169
aS'k1'
p5170
aS'ZINC03606137'
p5171
aS'k3'
p5172
aS'ZINC18168715'
p5173
aS'k2'
p5174
aS'ZINC02562361'
p5175
aS'k4'
p5176
aS'ZINC30725161'
p5177
aasI1658
(lp5178
sI1659
(lp5179
sI1660
(lp5180
sI1661
(lp5181
sI1662
(lp5182
sI1663
(lp5183
sI1664
(lp5184
(lp5185
S'ZINC04095539'
p5186
aS'k3'
p5187
aS'ZINC01532049'
p5188
aS'k1'
p5189
aS'ZINC03860903'
p5190
aS'k2'
p5191
aS'ZINC02562361'
p5192
aS'k4'
p5193
aS'ZINC30725157'
p5194
aa(lp5195
S'ZINC18140538'
p5196
aS'k3'
p5197
aS'ZINC01532049'
p5198
aS'k1'
p5199
aS'ZINC03860903'
p5200
aS'k2'
p5201
aS'ZINC02562361'
p5202
aS'k4'
p5203
aS'ZINC30725161'
p5204
aa(lp5205
S'ZINC18140538'
p5206
aS'k3'
p5207
aS'ZINC03830876'
p5208
aS'k1'
p5209
aS'ZINC03860903'
p5210
aS'k2'
p5211
aS'ZINC02562361'
p5212
aS'k4'
p5213
aS'ZINC30725161'
p5214
aa(lp5215
S'ZINC04096690'
p5216
aS'k3'
p5217
aS'ZINC01532049'
p5218
aS'k1'
p5219
aS'ZINC03860903'
p5220
aS'k2'
p5221
aS'ZINC02562361'
p5222
aS'k4'
p5223
aS'ZINC30725157'
p5224
aa(lp5225
S'ZINC18140538'
p5226
aS'k3'
p5227
aS'ZINC01532049'
p5228
aS'k1'
p5229
aS'ZINC03860903'
p5230
aS'k2'
p5231
aS'ZINC02562361'
p5232
aS'k4'
p5233
aS'ZINC30725157'
p5234
aa(lp5235
S'ZINC18140538'
p5236
aS'k3'
p5237
aS'ZINC03830876'
p5238
aS'k1'
p5239
aS'ZINC03860903'
p5240
aS'k2'
p5241
aS'ZINC02562361'
p5242
aS'k4'
p5243
aS'ZINC30725157'
p5244
aa(lp5245
S'ZINC18140538'
p5246
aS'k3'
p5247
aS'ZINC03830876'
p5248
aS'k1'
p5249
aS'ZINC03830679'
p5250
aS'k2'
p5251
aS'ZINC02562361'
p5252
aS'k4'
p5253
aS'ZINC30725161'
p5254
aasI1665
(lp5255
sI1666
(lp5256
sI1667
(lp5257
sI1668
(lp5258
sI1669
(lp5259
sI1670
(lp5260
(lp5261
S'ZINC01532567'
p5262
aS'k3'
p5263
aS'ZINC00902225'
p5264
aS'k1'
p5265
aS'ZINC18168715'
p5266
aS'k2'
p5267
aS'ZINC02562361'
p5268
aS'k4'
p5269
aS'ZINC30725157'
p5270
aa(lp5271
S'ZINC01532567'
p5272
aS'k3'
p5273
aS'ZINC00895279'
p5274
aS'k1'
p5275
aS'ZINC18168715'
p5276
aS'k2'
p5277
aS'ZINC02562361'
p5278
aS'k4'
p5279
aS'ZINC30725157'
p5280
aa(lp5281
S'ZINC01532567'
p5282
aS'k3'
p5283
aS'ZINC00895279'
p5284
aS'k1'
p5285
aS'ZINC18168715'
p5286
aS'k2'
p5287
aS'ZINC02562361'
p5288
aS'k4'
p5289
aS'ZINC30725161'
p5290
aa(lp5291
S'ZINC01532567'
p5292
aS'k3'
p5293
aS'ZINC00902225'
p5294
aS'k1'
p5295
aS'ZINC18168715'
p5296
aS'k2'
p5297
aS'ZINC02562361'
p5298
aS'k4'
p5299
aS'ZINC30725161'
p5300
aasI1671
(lp5301
sI1672
(lp5302
sI1673
(lp5303
sI1674
(lp5304
sI1675
(lp5305
sI1676
(lp5306
sI1677
(lp5307
sI1678
(lp5308
sI1679
(lp5309
sI1680
(lp5310
sI1681
(lp5311
sI1682
(lp5312
sI1683
(lp5313
sI1684
(lp5314
sI1685
(lp5315
(lp5316
S'ZINC04096690'
p5317
aS'k3'
p5318
aS'ZINC01532049'
p5319
aS'k1'
p5320
aS'ZINC03860903'
p5321
aS'k2'
p5322
aS'ZINC02562361'
p5323
aS'k4'
p5324
aS'ZINC30725157'
p5325
aa(lp5326
S'ZINC18140538'
p5327
aS'k3'
p5328
aS'ZINC01532049'
p5329
aS'k1'
p5330
aS'ZINC03860903'
p5331
aS'k2'
p5332
aS'ZINC02562361'
p5333
aS'k4'
p5334
aS'ZINC30725157'
p5335
aa(lp5336
S'ZINC18140538'
p5337
aS'k3'
p5338
aS'ZINC03830876'
p5339
aS'k1'
p5340
aS'ZINC03860903'
p5341
aS'k2'
p5342
aS'ZINC02562361'
p5343
aS'k4'
p5344
aS'ZINC30725157'
p5345
aa(lp5346
S'ZINC18140538'
p5347
aS'k3'
p5348
aS'ZINC03830876'
p5349
aS'k1'
p5350
aS'ZINC03830679'
p5351
aS'k2'
p5352
aS'ZINC02562361'
p5353
aS'k4'
p5354
aS'ZINC30725157'
p5355
aa(lp5356
S'ZINC04096690'
p5357
aS'k3'
p5358
aS'ZINC01532049'
p5359
aS'k1'
p5360
aS'ZINC03830679'
p5361
aS'k2'
p5362
aS'ZINC02562361'
p5363
aS'k4'
p5364
aS'ZINC30725157'
p5365
aa(lp5366
S'ZINC04095539'
p5367
aS'k3'
p5368
aS'ZINC01532049'
p5369
aS'k1'
p5370
aS'ZINC03830679'
p5371
aS'k2'
p5372
aS'ZINC02562361'
p5373
aS'k4'
p5374
aS'ZINC30725157'
p5375
aa(lp5376
S'ZINC04095539'
p5377
aS'k3'
p5378
aS'ZINC01532049'
p5379
aS'k1'
p5380
aS'ZINC03860903'
p5381
aS'k2'
p5382
aS'ZINC02562361'
p5383
aS'k4'
p5384
aS'ZINC30725157'
p5385
aa(lp5386
S'ZINC18140538'
p5387
aS'k3'
p5388
aS'ZINC03830876'
p5389
aS'k1'
p5390
aS'ZINC03860903'
p5391
aS'k2'
p5392
aS'ZINC02562361'
p5393
aS'k4'
p5394
aS'ZINC30725161'
p5395
aa(lp5396
S'ZINC18140538'
p5397
aS'k3'
p5398
aS'ZINC01532049'
p5399
aS'k1'
p5400
aS'ZINC03860903'
p5401
aS'k2'
p5402
aS'ZINC02562361'
p5403
aS'k4'
p5404
aS'ZINC30725161'
p5405
aa(lp5406
S'ZINC18140538'
p5407
aS'k3'
p5408
aS'ZINC01532049'
p5409
aS'k1'
p5410
aS'ZINC03830679'
p5411
aS'k2'
p5412
aS'ZINC02562361'
p5413
aS'k4'
p5414
aS'ZINC30725161'
p5415
aasI1686
(lp5416
sI1687
(lp5417
sI1688
(lp5418
sI1689
(lp5419
sI1690
(lp5420
sI1691
(lp5421
sI1692
(lp5422
sI1693
(lp5423
sI1694
(lp5424
sI1695
(lp5425
sI1696
(lp5426
sI1697
(lp5427
sI1698
(lp5428
sI1699
(lp5429
sI1700
(lp5430
sI1701
(lp5431
sI1702
(lp5432
sI1703
(lp5433
sI1704
(lp5434
sI1705
(lp5435
sI1706
(lp5436
sI1707
(lp5437
sI1708
(lp5438
sI1709
(lp5439
sI1710
(lp5440
sI1711
(lp5441
sI1712
(lp5442
sI1713
(lp5443
sI1714
(lp5444
sI1715
(lp5445
sI1716
(lp5446
sI1717
(lp5447
sI1718
(lp5448
(lp5449
S'ZINC18140538'
p5450
aS'k3'
p5451
aS'ZINC01532049'
p5452
aS'k1'
p5453
aS'ZINC03830679'
p5454
aS'k2'
p5455
aS'ZINC02562361'
p5456
aS'k4'
p5457
aS'ZINC30725157'
p5458
aa(lp5459
S'ZINC18140538'
p5460
aS'k3'
p5461
aS'ZINC01532049'
p5462
aS'k1'
p5463
aS'ZINC03830679'
p5464
aS'k2'
p5465
aS'ZINC02562361'
p5466
aS'k4'
p5467
aS'ZINC30725161'
p5468
aa(lp5469
S'ZINC18140538'
p5470
aS'k3'
p5471
aS'ZINC01532049'
p5472
aS'k1'
p5473
aS'ZINC03860903'
p5474
aS'k2'
p5475
aS'ZINC02562361'
p5476
aS'k4'
p5477
aS'ZINC30725161'
p5478
aa(lp5479
S'ZINC18140538'
p5480
aS'k3'
p5481
aS'ZINC03830876'
p5482
aS'k1'
p5483
aS'ZINC03830679'
p5484
aS'k2'
p5485
aS'ZINC02562361'
p5486
aS'k4'
p5487
aS'ZINC30725161'
p5488
aa(lp5489
S'ZINC18140538'
p5490
aS'k3'
p5491
aS'ZINC03830876'
p5492
aS'k1'
p5493
aS'ZINC03830679'
p5494
aS'k2'
p5495
aS'ZINC02562361'
p5496
aS'k4'
p5497
aS'ZINC30725157'
p5498
aa(lp5499
S'ZINC18140538'
p5500
aS'k3'
p5501
aS'ZINC03830876'
p5502
aS'k1'
p5503
aS'ZINC03860903'
p5504
aS'k2'
p5505
aS'ZINC02562361'
p5506
aS'k4'
p5507
aS'ZINC30725161'
p5508
aa(lp5509
S'ZINC18140538'
p5510
aS'k3'
p5511
aS'ZINC03830876'
p5512
aS'k1'
p5513
aS'ZINC03860903'
p5514
aS'k2'
p5515
aS'ZINC02562361'
p5516
aS'k4'
p5517
aS'ZINC30725157'
p5518
aasI1719
(lp5519
sI1720
(lp5520
sI1721
(lp5521
sI1722
(lp5522
sI1723
(lp5523
sI1724
(lp5524
sI1725
(lp5525
sI1726
(lp5526
sI1727
(lp5527
sI1728
(lp5528
sI1729
(lp5529
sI1730
(lp5530
sI1731
(lp5531
sI1732
(lp5532
sI1733
(lp5533
sI1734
(lp5534
sI1735
(lp5535
sI1736
(lp5536
sI1737
(lp5537
sI1738
(lp5538
sI1739
(lp5539
sI1740
(lp5540
sI1741
(lp5541
sI1742
(lp5542
sI1743
(lp5543
sI1744
(lp5544
sI1745
(lp5545
sI1746
(lp5546
sI1747
(lp5547
sI1748
(lp5548
(lp5549
S'ZINC01532567'
p5550
aS'k1'
p5551
aS'ZINC03606137'
p5552
aS'k3'
p5553
aS'ZINC18168715'
p5554
aS'k2'
p5555
aS'ZINC03870005'
p5556
aS'k4'
p5557
aS'ZINC30725161'
p5558
aa(lp5559
S'ZINC01532567'
p5560
aS'k1'
p5561
aS'ZINC03606137'
p5562
aS'k3'
p5563
aS'ZINC18168715'
p5564
aS'k2'
p5565
aS'ZINC02562361'
p5566
aS'k4'
p5567
aS'ZINC30725161'
p5568
aa(lp5569
S'ZINC01532567'
p5570
aS'k1'
p5571
aS'ZINC03606137'
p5572
aS'k3'
p5573
aS'ZINC18168715'
p5574
aS'k2'
p5575
aS'ZINC02562361'
p5576
aS'k4'
p5577
aS'ZINC30725157'
p5578
aasI1749
(lp5579
sI1750
(lp5580
sI1751
(lp5581
sI1752
(lp5582
sI1753
(lp5583
sI1754
(lp5584
sI1755
(lp5585
sI1756
(lp5586
sI1757
(lp5587
sI1758
(lp5588
sI1759
(lp5589
(lp5590
S'ZINC56874962'
p5591
aS'k1'
p5592
aS'ZINC03606137'
p5593
aS'k3'
p5594
aS'ZINC18168715'
p5595
aS'k2'
p5596
aS'ZINC02562361'
p5597
aS'k4'
p5598
aS'ZINC30725161'
p5599
aa(lp5600
S'ZINC56874962'
p5601
aS'k1'
p5602
aS'ZINC03606137'
p5603
aS'k3'
p5604
aS'ZINC18168715'
p5605
aS'k2'
p5606
aS'ZINC02562361'
p5607
aS'k4'
p5608
aS'ZINC30725157'
p5609
aa(lp5610
S'ZINC01532567'
p5611
aS'k1'
p5612
aS'ZINC03606137'
p5613
aS'k3'
p5614
aS'ZINC18168715'
p5615
aS'k2'
p5616
aS'ZINC02562361'
p5617
aS'k4'
p5618
aS'ZINC30725157'
p5619
aa(lp5620
S'ZINC01532567'
p5621
aS'k1'
p5622
aS'ZINC03606137'
p5623
aS'k3'
p5624
aS'ZINC18168715'
p5625
aS'k2'
p5626
aS'ZINC02562361'
p5627
aS'k4'
p5628
aS'ZINC30725161'
p5629
aasI1760
(lp5630
sI1761
(lp5631
sI1762
(lp5632
sI1763
(lp5633
sI1764
(lp5634
sI1765
(lp5635
sI1766
(lp5636
sI1767
(lp5637
sI1768
(lp5638
sI1769
(lp5639
sI1770
(lp5640
sI1771
(lp5641
sI1772
(lp5642
sI1773
(lp5643
sI1774
(lp5644
sI1775
(lp5645
sI1776
(lp5646
sI1777
(lp5647
sI1778
(lp5648
sI1779
(lp5649
sI1780
(lp5650
sI1781
(lp5651
sI1782
(lp5652
sI1783
(lp5653
sI1784
(lp5654
sI1785
(lp5655
sI1786
(lp5656
sI1787
(lp5657
sI1788
(lp5658
sI1789
(lp5659
sI1790
(lp5660
sI1791
(lp5661
sI1792
(lp5662
sI1793
(lp5663
sI1794
(lp5664
sI1795
(lp5665
sI1796
(lp5666
sI1797
(lp5667
sI1798
(lp5668
sI1799
(lp5669
sI1800
(lp5670
sI1801
(lp5671
sI1802
(lp5672
sI1803
(lp5673
sI1804
(lp5674
sI1805
(lp5675
sI1806
(lp5676
sI1807
(lp5677
sI1808
(lp5678
sI1809
(lp5679
sI1810
(lp5680
sI1811
(lp5681
sI1812
(lp5682
(lp5683
S'ZINC56874962'
p5684
aS'k1'
p5685
aS'ZINC03606137'
p5686
aS'k3'
p5687
aS'ZINC18168715'
p5688
aS'k2'
p5689
aS'ZINC02562361'
p5690
aS'k4'
p5691
aS'ZINC30725157'
p5692
aa(lp5693
S'ZINC01532567'
p5694
aS'k1'
p5695
aS'ZINC03606137'
p5696
aS'k3'
p5697
aS'ZINC18168715'
p5698
aS'k2'
p5699
aS'ZINC02562361'
p5700
aS'k4'
p5701
aS'ZINC30725157'
p5702
aa(lp5703
S'ZINC01532567'
p5704
aS'k1'
p5705
aS'ZINC03606137'
p5706
aS'k3'
p5707
aS'ZINC18168715'
p5708
aS'k2'
p5709
aS'ZINC02562361'
p5710
aS'k4'
p5711
aS'ZINC30725161'
p5712
aasI1813
(lp5713
sI1814
(lp5714
sI1815
(lp5715
sI1816
(lp5716
sI1817
(lp5717
sI1818
(lp5718
sI1819
(lp5719
sI1820
(lp5720
sI1821
(lp5721
sI1822
(lp5722
sI1823
(lp5723
sI1824
(lp5724
sI1825
(lp5725
sI1826
(lp5726
sI1827
(lp5727
sI1828
(lp5728
sI1829
(lp5729
sI1830
(lp5730
sI1831
(lp5731
(lp5732
S'ZINC04095539'
p5733
aS'k3'
p5734
aS'ZINC01532049'
p5735
aS'k1'
p5736
aS'ZINC03830679'
p5737
aS'k2'
p5738
aS'ZINC02562361'
p5739
aS'k4'
p5740
aS'ZINC30725157'
p5741
aa(lp5742
S'ZINC18140538'
p5743
aS'k3'
p5744
aS'ZINC01532049'
p5745
aS'k1'
p5746
aS'ZINC03830679'
p5747
aS'k2'
p5748
aS'ZINC02562361'
p5749
aS'k4'
p5750
aS'ZINC30725161'
p5751
aa(lp5752
S'ZINC18140538'
p5753
aS'k3'
p5754
aS'ZINC03830876'
p5755
aS'k1'
p5756
aS'ZINC03830679'
p5757
aS'k2'
p5758
aS'ZINC02562361'
p5759
aS'k4'
p5760
aS'ZINC30725161'
p5761
aa(lp5762
S'ZINC18140538'
p5763
aS'k3'
p5764
aS'ZINC03830876'
p5765
aS'k1'
p5766
aS'ZINC03830679'
p5767
aS'k2'
p5768
aS'ZINC02562361'
p5769
aS'k4'
p5770
aS'ZINC30725157'
p5771
aa(lp5772
S'ZINC18140538'
p5773
aS'k3'
p5774
aS'ZINC01532049'
p5775
aS'k1'
p5776
aS'ZINC03830679'
p5777
aS'k2'
p5778
aS'ZINC02562361'
p5779
aS'k4'
p5780
aS'ZINC30725157'
p5781
aa(lp5782
S'ZINC18140538'
p5783
aS'k3'
p5784
aS'ZINC03830876'
p5785
aS'k1'
p5786
aS'ZINC03860903'
p5787
aS'k2'
p5788
aS'ZINC02562361'
p5789
aS'k4'
p5790
aS'ZINC30725157'
p5791
aa(lp5792
S'ZINC04096690'
p5793
aS'k3'
p5794
aS'ZINC01532049'
p5795
aS'k1'
p5796
aS'ZINC03860903'
p5797
aS'k2'
p5798
aS'ZINC02562361'
p5799
aS'k4'
p5800
aS'ZINC30725157'
p5801
aa(lp5802
S'ZINC18140538'
p5803
aS'k3'
p5804
aS'ZINC01532049'
p5805
aS'k1'
p5806
aS'ZINC03860903'
p5807
aS'k2'
p5808
aS'ZINC02562361'
p5809
aS'k4'
p5810
aS'ZINC30725161'
p5811
aa(lp5812
S'ZINC18140538'
p5813
aS'k3'
p5814
aS'ZINC01532049'
p5815
aS'k1'
p5816
aS'ZINC03860903'
p5817
aS'k2'
p5818
aS'ZINC02562361'
p5819
aS'k4'
p5820
aS'ZINC30725157'
p5821
aa(lp5822
S'ZINC18140538'
p5823
aS'k3'
p5824
aS'ZINC03830876'
p5825
aS'k1'
p5826
aS'ZINC03860903'
p5827
aS'k2'
p5828
aS'ZINC02562361'
p5829
aS'k4'
p5830
aS'ZINC30725161'
p5831
aasI1832
(lp5832
sI1833
(lp5833
sI1834
(lp5834
sI1835
(lp5835
sI1836
(lp5836
(lp5837
S'ZINC01532567'
p5838
aS'k3'
p5839
aS'ZINC00902225'
p5840
aS'k1'
p5841
aS'ZINC18168715'
p5842
aS'k2'
p5843
aS'ZINC02562361'
p5844
aS'k4'
p5845
aS'ZINC30725157'
p5846
aa(lp5847
S'ZINC01532567'
p5848
aS'k3'
p5849
aS'ZINC00902225'
p5850
aS'k1'
p5851
aS'ZINC18168715'
p5852
aS'k2'
p5853
aS'ZINC02562361'
p5854
aS'k4'
p5855
aS'ZINC30725161'
p5856
aa(lp5857
S'ZINC01532567'
p5858
aS'k3'
p5859
aS'ZINC00895279'
p5860
aS'k1'
p5861
aS'ZINC18168715'
p5862
aS'k2'
p5863
aS'ZINC02562361'
p5864
aS'k4'
p5865
aS'ZINC30725157'
p5866
aa(lp5867
S'ZINC01532567'
p5868
aS'k3'
p5869
aS'ZINC00895279'
p5870
aS'k1'
p5871
aS'ZINC18168715'
p5872
aS'k2'
p5873
aS'ZINC02562361'
p5874
aS'k4'
p5875
aS'ZINC30725161'
p5876
aasI1837
(lp5877
sI1838
(lp5878
sI1839
(lp5879
sI1840
(lp5880
sI1841
(lp5881
sI1842
(lp5882
sI1843
(lp5883
sI1844
(lp5884
sI1845
(lp5885
sI1846
(lp5886
sI1847
(lp5887
sI1848
(lp5888
(lp5889
S'ZINC01532567'
p5890
aS'k3'
p5891
aS'ZINC00902225'
p5892
aS'k1'
p5893
aS'ZINC18168715'
p5894
aS'k2'
p5895
aS'ZINC02562361'
p5896
aS'k4'
p5897
aS'ZINC30725161'
p5898
aa(lp5899
S'ZINC01532567'
p5900
aS'k3'
p5901
aS'ZINC00902225'
p5902
aS'k1'
p5903
aS'ZINC18168715'
p5904
aS'k2'
p5905
aS'ZINC02562361'
p5906
aS'k4'
p5907
aS'ZINC30725157'
p5908
aa(lp5909
S'ZINC01532567'
p5910
aS'k3'
p5911
aS'ZINC00895279'
p5912
aS'k1'
p5913
aS'ZINC18168715'
p5914
aS'k2'
p5915
aS'ZINC02562361'
p5916
aS'k4'
p5917
aS'ZINC30725157'
p5918
aasI1849
(lp5919
sI1850
(lp5920
sI1851
(lp5921
sI1852
(lp5922
sI1853
(lp5923
sI1854
(lp5924
sI1855
(lp5925
sI1856
(lp5926
sI1857
(lp5927
sI1858
(lp5928
sI1859
(lp5929
sI1860
(lp5930
sI1861
(lp5931
sI1862
(lp5932
sI1863
(lp5933
sI1864
(lp5934
sI1865
(lp5935
(lp5936
S'ZINC56874962'
p5937
aS'k1'
p5938
aS'ZINC03606137'
p5939
aS'k3'
p5940
aS'ZINC18168715'
p5941
aS'k2'
p5942
aS'ZINC02562361'
p5943
aS'k4'
p5944
aS'ZINC30725157'
p5945
aa(lp5946
S'ZINC01532567'
p5947
aS'k1'
p5948
aS'ZINC03606137'
p5949
aS'k3'
p5950
aS'ZINC18168715'
p5951
aS'k2'
p5952
aS'ZINC02562361'
p5953
aS'k4'
p5954
aS'ZINC30725161'
p5955
aa(lp5956
S'ZINC01532567'
p5957
aS'k1'
p5958
aS'ZINC03606137'
p5959
aS'k3'
p5960
aS'ZINC18168715'
p5961
aS'k2'
p5962
aS'ZINC02562361'
p5963
aS'k4'
p5964
aS'ZINC30725157'
p5965
aasI1866
(lp5966
sI1867
(lp5967
sI1868
(lp5968
sI1869
(lp5969
sI1870
(lp5970
sI1871
(lp5971
sI1872
(lp5972
sI1873
(lp5973
(lp5974
S'ZINC56874962'
p5975
aS'k1'
p5976
aS'ZINC03606137'
p5977
aS'k3'
p5978
aS'ZINC18168715'
p5979
aS'k2'
p5980
aS'ZINC02562361'
p5981
aS'k4'
p5982
aS'ZINC30725161'
p5983
aa(lp5984
S'ZINC56874962'
p5985
aS'k1'
p5986
aS'ZINC03606137'
p5987
aS'k3'
p5988
aS'ZINC18168715'
p5989
aS'k2'
p5990
aS'ZINC02562361'
p5991
aS'k4'
p5992
aS'ZINC30725157'
p5993
aa(lp5994
S'ZINC01532567'
p5995
aS'k1'
p5996
aS'ZINC03606137'
p5997
aS'k3'
p5998
aS'ZINC18168715'
p5999
aS'k2'
p6000
aS'ZINC02562361'
p6001
aS'k4'
p6002
aS'ZINC30725157'
p6003
aa(lp6004
S'ZINC01532567'
p6005
aS'k1'
p6006
aS'ZINC03606137'
p6007
aS'k3'
p6008
aS'ZINC18168715'
p6009
aS'k2'
p6010
aS'ZINC02562361'
p6011
aS'k4'
p6012
aS'ZINC30725161'
p6013
aasI1874
(lp6014
sI1875
(lp6015
sI1876
(lp6016
sI1877
(lp6017
sI1878
(lp6018
sI1879
(lp6019
sI1880
(lp6020
sI1881
(lp6021
sI1882
(lp6022
(lp6023
S'ZINC01532567'
p6024
aS'k1'
p6025
aS'ZINC03606137'
p6026
aS'k3'
p6027
aS'ZINC18168715'
p6028
aS'k2'
p6029
aS'ZINC02562361'
p6030
aS'k4'
p6031
aS'ZINC30725157'
p6032
aa(lp6033
S'ZINC01532567'
p6034
aS'k1'
p6035
aS'ZINC03606137'
p6036
aS'k3'
p6037
aS'ZINC18168715'
p6038
aS'k2'
p6039
aS'ZINC02562361'
p6040
aS'k4'
p6041
aS'ZINC30725161'
p6042
aa(lp6043
S'ZINC01532567'
p6044
aS'k1'
p6045
aS'ZINC03606137'
p6046
aS'k3'
p6047
aS'ZINC18168715'
p6048
aS'k2'
p6049
aS'ZINC03870005'
p6050
aS'k4'
p6051
aS'ZINC30725157'
p6052
aa(lp6053
S'ZINC01532567'
p6054
aS'k1'
p6055
aS'ZINC03606137'
p6056
aS'k3'
p6057
aS'ZINC18168715'
p6058
aS'k2'
p6059
aS'ZINC03870005'
p6060
aS'k4'
p6061
aS'ZINC30725161'
p6062
aasI1883
(lp6063
sI1884
(lp6064
sI1885
(lp6065
sI1886
(lp6066
(lp6067
S'ZINC18140538'
p6068
aS'k3'
p6069
aS'ZINC03830876'
p6070
aS'k1'
p6071
aS'ZINC03860903'
p6072
aS'k2'
p6073
aS'ZINC02562361'
p6074
aS'k4'
p6075
aS'ZINC30725157'
p6076
aasI1887
(lp6077
sI1888
(lp6078
sI1889
(lp6079
sI1890
(lp6080
sI1891
(lp6081
sI1892
(lp6082
sI1893
(lp6083
sI1894
(lp6084
sI1895
(lp6085
sI1896
(lp6086
sI1897
(lp6087
sI1898
(lp6088
sI1899
(lp6089
sI1900
(lp6090
sI1901
(lp6091
sI1902
(lp6092
sI1903
(lp6093
sI1904
(lp6094
sI1905
(lp6095
sI1906
(lp6096
sI1907
(lp6097
sI1908
(lp6098
sI1909
(lp6099
sI1910
(lp6100
sI1911
(lp6101
sI1912
(lp6102
sI1913
(lp6103
sI1914
(lp6104
sI1915
(lp6105
sI1916
(lp6106
sI1917
(lp6107
sI1918
(lp6108
(lp6109
S'ZINC03870277'
p6110
aS'k3'
p6111
aS'ZINC01532567'
p6112
aS'k1'
p6113
aS'ZINC03606137'
p6114
aS'k2'
p6115
aS'ZINC03870009'
p6116
aS'k4'
p6117
aS'ZINC30725157'
p6118
aa(lp6119
S'ZINC03870277'
p6120
aS'k3'
p6121
aS'ZINC01532567'
p6122
aS'k1'
p6123
aS'ZINC03606137'
p6124
aS'k2'
p6125
aS'ZINC03870009'
p6126
aS'k4'
p6127
aS'ZINC30725161'
p6128
aasI1919
(lp6129
sI1920
(lp6130
sI1921
(lp6131
sI1922
(lp6132
sI1923
(lp6133
sI1924
(lp6134
sI1925
(lp6135
sI1926
(lp6136
sI1927
(lp6137
sI1928
(lp6138
sI1929
(lp6139
sI1930
(lp6140
sI1931
(lp6141
sI1932
(lp6142
sI1933
(lp6143
sI1934
(lp6144
sI1935
(lp6145
sI1936
(lp6146
sI1937
(lp6147
sI1938
(lp6148
sI1939
(lp6149
sI1940
(lp6150
sI1941
(lp6151
sI1942
(lp6152
sI1943
(lp6153
sI1944
(lp6154
sI1945
(lp6155
sI1946
(lp6156
sI1947
(lp6157
sI1948
(lp6158
sI1949
(lp6159
sI1950
(lp6160
(lp6161
S'ZINC56874962'
p6162
aS'k1'
p6163
aS'ZINC03606137'
p6164
aS'k3'
p6165
aS'ZINC18168715'
p6166
aS'k2'
p6167
aS'ZINC02562361'
p6168
aS'k4'
p6169
aS'ZINC30725157'
p6170
aa(lp6171
S'ZINC01532567'
p6172
aS'k1'
p6173
aS'ZINC03606137'
p6174
aS'k3'
p6175
aS'ZINC18168715'
p6176
aS'k2'
p6177
aS'ZINC02562361'
p6178
aS'k4'
p6179
aS'ZINC30725157'
p6180
aa(lp6181
S'ZINC01532567'
p6182
aS'k1'
p6183
aS'ZINC03606137'
p6184
aS'k3'
p6185
aS'ZINC18168715'
p6186
aS'k2'
p6187
aS'ZINC02562361'
p6188
aS'k4'
p6189
aS'ZINC30725161'
p6190
aasI1951
(lp6191
sI1952
(lp6192
sI1953
(lp6193
sI1954
(lp6194
sI1955
(lp6195
sI1956
(lp6196
sI1957
(lp6197
sI1958
(lp6198
sI1959
(lp6199
sI1960
(lp6200
sI1961
(lp6201
sI1962
(lp6202
sI1963
(lp6203
sI1964
(lp6204
sI1965
(lp6205
sI1966
(lp6206
sI1967
(lp6207
sI1968
(lp6208
sI1969
(lp6209
sI1970
(lp6210
sI1971
(lp6211
sI1972
(lp6212
sI1973
(lp6213
sI1974
(lp6214
sI1975
(lp6215
sI1976
(lp6216
sI1977
(lp6217
sI1978
(lp6218
sI1979
(lp6219
sI1980
(lp6220
sI1981
(lp6221
sI1982
(lp6222
sI1983
(lp6223
sI1984
(lp6224
sI1985
(lp6225
sI1986
(lp6226
sI1987
(lp6227
sI1988
(lp6228
sI1989
(lp6229
sI1990
(lp6230
sI1991
(lp6231
sI1992
(lp6232
sI1993
(lp6233
(lp6234
S'ZINC01532567'
p6235
aS'k1'
p6236
aS'ZINC03606137'
p6237
aS'k3'
p6238
aS'ZINC18168715'
p6239
aS'k2'
p6240
aS'ZINC02562361'
p6241
aS'k4'
p6242
aS'ZINC30725161'
p6243
aa(lp6244
S'ZINC01532567'
p6245
aS'k1'
p6246
aS'ZINC03606137'
p6247
aS'k3'
p6248
aS'ZINC18168715'
p6249
aS'k2'
p6250
aS'ZINC02562361'
p6251
aS'k4'
p6252
aS'ZINC30725157'
p6253
aasI1994
(lp6254
sI1995
(lp6255
sI1996
(lp6256
sI1997
(lp6257
sI1998
(lp6258
sI1999
(lp6259
sI2000
(lp6260
ssS'uniqpathstrs'
p6261
(lp6262
g60
ag70
ag80
ag117
ag227
ag237
ag257
ag267
ag277
ag287
ag297
ag307
ag317
ag327
ag382
ag422
ag432
ag442
ag452
ag462
ag472
ag482
ag660
ag670
ag690
ag1186
ag1291
ag1573
ag1633
ag1643
ag1702
ag1712
ag1928
ag2086
ag2096
ag3052
ag3954
ag3964
ag3974
asS'best_score'
p6263
cnumpy.core.multiarray
scalar
p6264
(g35
S'\xb9\xc4\xdaA'
p6265
tp6266
Rp6267
sS'flatclusters'
p6268
g10
(g11
(I0
tp6269
g13
tp6270
Rp6271
(I1
(I39
tp6272
g29
I00
S'\x07\x00\x00\x00\x07\x00\x00\x00\x07\x00\x00\x00\x07\x00\x00\x00\x03\x00\x00\x00\x03\x00\x00\x00\x06\x00\x00\x00\x06\x00\x00\x00\x06\x00\x00\x00\x06\x00\x00\x00\x06\x00\x00\x00\x06\x00\x00\x00\x06\x00\x00\x00\x06\x00\x00\x00\x06\x00\x00\x00\x05\x00\x00\x00\x05\x00\x00\x00\x05\x00\x00\x00\x05\x00\x00\x00\x05\x00\x00\x00\x05\x00\x00\x00\x05\x00\x00\x00\x05\x00\x00\x00\x05\x00\x00\x00\x05\x00\x00\x00\x05\x00\x00\x00\x07\x00\x00\x00\x07\x00\x00\x00\x06\x00\x00\x00\x06\x00\x00\x00\x04\x00\x00\x00\x04\x00\x00\x00\x05\x00\x00\x00\x07\x00\x00\x00\x07\x00\x00\x00\x08\x00\x00\x00\x01\x00\x00\x00\x02\x00\x00\x00\x01\x00\x00\x00'
p6273
tp6274
bsS'num_runs'
p6275
g6264
(g17
(S'i8'
p6276
I0
I1
tp6277
Rp6278
(I3
S'<'
p6279
NNNI-1
I-1
I0
tp6280
bS'\xd0\x07\x00\x00\x00\x00\x00\x00'
p6281
tp6282
Rp6283
sS'reprclusters'
p6284
(dp6285
I1
g6264
(g17
(S'S100'
p6286
I0
I1
tp6287
Rp6288
(I3
S'|'
p6289
NNNI100
I1
I0
tp6290
bS'ZINC03869936 -> k2 -> ZINC01529165 -> k3 -> ZINC01532568 -> s1 -> ZINC01529927 -> k1 -> ZINC01529842'
p6291
tp6292
Rp6293
sI2
g6264
(g17
(S'S100'
p6294
I0
I1
tp6295
Rp6296
(I3
S'|'
p6297
NNNI100
I1
I0
tp6298
bS'ZINC03869936 -> k2 -> ZINC01529165 -> k3 -> ZINC01532568 -> s1 -> ZINC01529842 -> k1 -> ZINC01529927'
p6299
tp6300
Rp6301
sI3
g6264
(g17
(S'S100'
p6302
I0
I1
tp6303
Rp6304
(I3
S'|'
p6305
NNNI100
I1
I0
tp6306
bS'ZINC03870277 -> k3 -> ZINC01532567 -> k1 -> ZINC03606137 -> k2 -> ZINC03870009 -> k4 -> ZINC30725157'
p6307
tp6308
Rp6309
sI4
g6264
(g17
(S'S100'
p6310
I0
I1
tp6311
Rp6312
(I3
S'|'
p6313
NNNI100
I1
I0
tp6314
bS'ZINC01532567 -> k1 -> ZINC03606137 -> k2 -> ZINC03870009 -> k3 -> ZINC02562361 -> k4 -> ZINC30725157'
p6315
tp6316
Rp6317
sI5
g6264
(g17
(S'S100'
p6318
I0
I1
tp6319
Rp6320
(I3
S'|'
p6321
NNNI100
I1
I0
tp6322
bS'ZINC18140538 -> k3 -> ZINC01532049 -> k1 -> ZINC03830679 -> k2 -> ZINC02562361 -> k4 -> ZINC30725157'
p6323
tp6324
Rp6325
sI6
g6264
(g17
(S'S100'
p6326
I0
I1
tp6327
Rp6328
(I3
S'|'
p6329
NNNI100
I1
I0
tp6330
bS'ZINC01532567 -> k3 -> ZINC00902225 -> k1 -> ZINC18168715 -> k2 -> ZINC02562361 -> k4 -> ZINC30725157'
p6331
tp6332
Rp6333
sI7
g6264
(g17
(S'S100'
p6334
I0
I1
tp6335
Rp6336
(I3
S'|'
p6337
NNNI100
I1
I0
tp6338
bS'ZINC01532567 -> k1 -> ZINC03606137 -> k3 -> ZINC18168715 -> k2 -> ZINC02562361 -> k4 -> ZINC30725157'
p6339
tp6340
Rp6341
sI8
g6264
(g17
(S'S100'
p6342
I0
I1
tp6343
Rp6344
(I3
S'|'
p6345
NNNI100
I1
I0
tp6346
bS'ZINC03869934 -> k3 -> ZINC00895140 -> s1 -> ZINC01532558 -> k1 -> ZINC00895511 -> k2 -> ZINC01529791'
p6347
tp6348
Rp6349
ssS'conv_test_means'
p6350
NsS'best_path'
p6351
g6264
(g17
(S'S100'
p6352
I0
I1
tp6353
Rp6354
(I3
S'|'
p6355
NNNI100
I1
I0
tp6356
bS'ZINC01532567 -> k3 -> ZINC00902225 -> k1 -> ZINC18168715 -> k2 -> ZINC02562361 -> k4 -> ZINC30725157'
p6357
tp6358
Rp6359
sb.