ccopy_reg
_reconstructor
p0
(canalyze_sampling
pathens
p1
c__builtin__
object
p2
Ntp3
Rp4
(dp5
S'cutoff'
p6
F24.757340867941735
sS'fileprefix'
p7
S'/scrapp2/scalhoun/output/pathcomb_3_'
p8
sS'np_path_array'
p9
cnumpy.core.multiarray
_reconstruct
p10
(cnumpy
ndarray
p11
(I0
tp12
S'b'
p13
tp14
Rp15
(I1
(I12
tp16
cnumpy
dtype
p17
(S'V208'
p18
I0
I1
tp19
Rp20
(I3
S'|'
p21
N(S'obj'
p22
S'strrepr'
p23
S'run'
p24
tp25
(dp26
g24
(g17
(S'i4'
p27
I0
I1
tp28
Rp29
(I3
S'<'
p30
NNNI-1
I-1
I0
tp31
bI204
tp32
sg22
(g17
(S'f4'
p33
I0
I1
tp34
Rp35
(I3
S'<'
p36
NNNI-1
I-1
I0
tp37
bI0
tp38
sg23
(g17
(S'S200'
p39
I0
I1
tp40
Rp41
(I3
S'|'
p42
NNNI200
I1
I0
tp43
bI4
tp44
sI208
I1
I0
tp45
bI00
S'\x10@\xc9AZINC00902225 -> k1 -> ZINC18168715 -> k2 -> ZINC02562361 -> k4 -> ZINC30725157\x00\x00\x00\x00\x00\x00\x00\x00\x00\x00\x00\x00\x00\x00\x00\x00\x00\x00\x00\x00\x00\x00\x00\x00\x00\x00\x00\x00\x00\x00\x00\x00\x00\x00\x00\x00\x00\x00\x00\x00\x00\x00\x00\x00\x00\x00\x00\x00\x00\x00\x00\x00\x00\x00\x00\x00\x00\x00\x00\x00\x00\x00\x00\x00\x00\x00\x00\x00\x00\x00\x00\x00\x00\x00\x00\x00\x00\x00\x00\x00\x00\x00\x00\x00\x00\x00\x00\x00\x00\x00\x00\x00\x00\x00\x00\x00\x00\x00\x00\x00\x00\x00\x00\x00\x00\x00\x00\x00\x00\x00\x00\x00\x00\x00\x00\x00\x00\x00\x00\x00\x00\x00\x01\x00\x00\x00\x8f\xb2\xc8AZINC00902225 -> k1 -> ZINC18168715 -> k2 -> ZINC02562361 -> k4 -> ZINC30725161\x00\x00\x00\x00\x00\x00\x00\x00\x00\x00\x00\x00\x00\x00\x00\x00\x00\x00\x00\x00\x00\x00\x00\x00\x00\x00\x00\x00\x00\x00\x00\x00\x00\x00\x00\x00\x00\x00\x00\x00\x00\x00\x00\x00\x00\x00\x00\x00\x00\x00\x00\x00\x00\x00\x00\x00\x00\x00\x00\x00\x00\x00\x00\x00\x00\x00\x00\x00\x00\x00\x00\x00\x00\x00\x00\x00\x00\x00\x00\x00\x00\x00\x00\x00\x00\x00\x00\x00\x00\x00\x00\x00\x00\x00\x00\x00\x00\x00\x00\x00\x00\x00\x00\x00\x00\x00\x00\x00\x00\x00\x00\x00\x00\x00\x00\x00\x00\x00\x00\x00\x00\x00\x01\x00\x00\x00\x0e\xab\xc8AZINC00895279 -> k1 -> ZINC18168715 -> k2 -> ZINC02562361 -> k4 -> ZINC30725157\x00\x00\x00\x00\x00\x00\x00\x00\x00\x00\x00\x00\x00\x00\x00\x00\x00\x00\x00\x00\x00\x00\x00\x00\x00\x00\x00\x00\x00\x00\x00\x00\x00\x00\x00\x00\x00\x00\x00\x00\x00\x00\x00\x00\x00\x00\x00\x00\x00\x00\x00\x00\x00\x00\x00\x00\x00\x00\x00\x00\x00\x00\x00\x00\x00\x00\x00\x00\x00\x00\x00\x00\x00\x00\x00\x00\x00\x00\x00\x00\x00\x00\x00\x00\x00\x00\x00\x00\x00\x00\x00\x00\x00\x00\x00\x00\x00\x00\x00\x00\x00\x00\x00\x00\x00\x00\x00\x00\x00\x00\x00\x00\x00\x00\x00\x00\x00\x00\x00\x00\x00\x00\x01\x00\x00\x00\x8d\x1d\xc8AZINC00895279 -> k1 -> ZINC18168715 -> k2 -> ZINC02562361 -> k4 -> ZINC30725161\x00\x00\x00\x00\x00\x00\x00\x00\x00\x00\x00\x00\x00\x00\x00\x00\x00\x00\x00\x00\x00\x00\x00\x00\x00\x00\x00\x00\x00\x00\x00\x00\x00\x00\x00\x00\x00\x00\x00\x00\x00\x00\x00\x00\x00\x00\x00\x00\x00\x00\x00\x00\x00\x00\x00\x00\x00\x00\x00\x00\x00\x00\x00\x00\x00\x00\x00\x00\x00\x00\x00\x00\x00\x00\x00\x00\x00\x00\x00\x00\x00\x00\x00\x00\x00\x00\x00\x00\x00\x00\x00\x00\x00\x00\x00\x00\x00\x00\x00\x00\x00\x00\x00\x00\x00\x00\x00\x00\x00\x00\x00\x00\x00\x00\x00\x00\x00\x00\x00\x00\x00\x00\x01\x00\x00\x002\x89\xc9AZINC03606137 -> k3 -> ZINC18168715 -> k2 -> ZINC02562361 -> k4 -> ZINC30725157\x00\x00\x00\x00\x00\x00\x00\x00\x00\x00\x00\x00\x00\x00\x00\x00\x00\x00\x00\x00\x00\x00\x00\x00\x00\x00\x00\x00\x00\x00\x00\x00\x00\x00\x00\x00\x00\x00\x00\x00\x00\x00\x00\x00\x00\x00\x00\x00\x00\x00\x00\x00\x00\x00\x00\x00\x00\x00\x00\x00\x00\x00\x00\x00\x00\x00\x00\x00\x00\x00\x00\x00\x00\x00\x00\x00\x00\x00\x00\x00\x00\x00\x00\x00\x00\x00\x00\x00\x00\x00\x00\x00\x00\x00\x00\x00\x00\x00\x00\x00\x00\x00\x00\x00\x00\x00\x00\x00\x00\x00\x00\x00\x00\x00\x00\x00\x00\x00\x00\x00\x00\x00\x02\x00\x00\x00\xb1\xfb\xc8AZINC03606137 -> k3 -> ZINC18168715 -> k2 -> ZINC02562361 -> k4 -> ZINC30725161\x00\x00\x00\x00\x00\x00\x00\x00\x00\x00\x00\x00\x00\x00\x00\x00\x00\x00\x00\x00\x00\x00\x00\x00\x00\x00\x00\x00\x00\x00\x00\x00\x00\x00\x00\x00\x00\x00\x00\x00\x00\x00\x00\x00\x00\x00\x00\x00\x00\x00\x00\x00\x00\x00\x00\x00\x00\x00\x00\x00\x00\x00\x00\x00\x00\x00\x00\x00\x00\x00\x00\x00\x00\x00\x00\x00\x00\x00\x00\x00\x00\x00\x00\x00\x00\x00\x00\x00\x00\x00\x00\x00\x00\x00\x00\x00\x00\x00\x00\x00\x00\x00\x00\x00\x00\x00\x00\x00\x00\x00\x00\x00\x00\x00\x00\x00\x00\x00\x00\x00\x00\x00\x02\x00\x00\x00\x10$\xc7AZINC03606137 -> k2 -> ZINC03870009 -> k3 -> ZINC02562361 -> k4 -> ZINC30725157\x00\x00\x00\x00\x00\x00\x00\x00\x00\x00\x00\x00\x00\x00\x00\x00\x00\x00\x00\x00\x00\x00\x00\x00\x00\x00\x00\x00\x00\x00\x00\x00\x00\x00\x00\x00\x00\x00\x00\x00\x00\x00\x00\x00\x00\x00\x00\x00\x00\x00\x00\x00\x00\x00\x00\x00\x00\x00\x00\x00\x00\x00\x00\x00\x00\x00\x00\x00\x00\x00\x00\x00\x00\x00\x00\x00\x00\x00\x00\x00\x00\x00\x00\x00\x00\x00\x00\x00\x00\x00\x00\x00\x00\x00\x00\x00\x00\x00\x00\x00\x00\x00\x00\x00\x00\x00\x00\x00\x00\x00\x00\x00\x00\x00\x00\x00\x00\x00\x00\x00\x00\x00(\x00\x00\x00\x8e\x96\xc6AZINC03606137 -> k2 -> ZINC03870009 -> k3 -> ZINC02562361 -> k4 -> ZINC30725161\x00\x00\x00\x00\x00\x00\x00\x00\x00\x00\x00\x00\x00\x00\x00\x00\x00\x00\x00\x00\x00\x00\x00\x00\x00\x00\x00\x00\x00\x00\x00\x00\x00\x00\x00\x00\x00\x00\x00\x00\x00\x00\x00\x00\x00\x00\x00\x00\x00\x00\x00\x00\x00\x00\x00\x00\x00\x00\x00\x00\x00\x00\x00\x00\x00\x00\x00\x00\x00\x00\x00\x00\x00\x00\x00\x00\x00\x00\x00\x00\x00\x00\x00\x00\x00\x00\x00\x00\x00\x00\x00\x00\x00\x00\x00\x00\x00\x00\x00\x00\x00\x00\x00\x00\x00\x00\x00\x00\x00\x00\x00\x00\x00\x00\x00\x00\x00\x00\x00\x00\x00\x00(\x00\x00\x00\xc7x\xc8AZINC01532567 -> k3 -> ZINC00902225 -> k1 -> ZINC18168715 -> k2 -> ZINC03870005\x00\x00\x00\x00\x00\x00\x00\x00\x00\x00\x00\x00\x00\x00\x00\x00\x00\x00\x00\x00\x00\x00\x00\x00\x00\x00\x00\x00\x00\x00\x00\x00\x00\x00\x00\x00\x00\x00\x00\x00\x00\x00\x00\x00\x00\x00\x00\x00\x00\x00\x00\x00\x00\x00\x00\x00\x00\x00\x00\x00\x00\x00\x00\x00\x00\x00\x00\x00\x00\x00\x00\x00\x00\x00\x00\x00\x00\x00\x00\x00\x00\x00\x00\x00\x00\x00\x00\x00\x00\x00\x00\x00\x00\x00\x00\x00\x00\x00\x00\x00\x00\x00\x00\x00\x00\x00\x00\x00\x00\x00\x00\x00\x00\x00\x00\x00\x00\x00\x00\x00\x00\x00/\x00\x00\x00\x08\xbb\xc7AZINC01532567 -> k3 -> ZINC00902225 -> k1 -> ZINC18168715 -> k2 -> ZINC02562361\x00\x00\x00\x00\x00\x00\x00\x00\x00\x00\x00\x00\x00\x00\x00\x00\x00\x00\x00\x00\x00\x00\x00\x00\x00\x00\x00\x00\x00\x00\x00\x00\x00\x00\x00\x00\x00\x00\x00\x00\x00\x00\x00\x00\x00\x00\x00\x00\x00\x00\x00\x00\x00\x00\x00\x00\x00\x00\x00\x00\x00\x00\x00\x00\x00\x00\x00\x00\x00\x00\x00\x00\x00\x00\x00\x00\x00\x00\x00\x00\x00\x00\x00\x00\x00\x00\x00\x00\x00\x00\x00\x00\x00\x00\x00\x00\x00\x00\x00\x00\x00\x00\x00\x00\x00\x00\x00\x00\x00\x00\x00\x00\x00\x00\x00\x00\x00\x00\x00\x00\x00\x00/\x00\x00\x00@\xc3\xc9AZINC04658557 -> s1 -> ZINC04658554 -> k2 -> ZINC01532865 -> s2 -> ZINC00895967\x00\x00\x00\x00\x00\x00\x00\x00\x00\x00\x00\x00\x00\x00\x00\x00\x00\x00\x00\x00\x00\x00\x00\x00\x00\x00\x00\x00\x00\x00\x00\x00\x00\x00\x00\x00\x00\x00\x00\x00\x00\x00\x00\x00\x00\x00\x00\x00\x00\x00\x00\x00\x00\x00\x00\x00\x00\x00\x00\x00\x00\x00\x00\x00\x00\x00\x00\x00\x00\x00\x00\x00\x00\x00\x00\x00\x00\x00\x00\x00\x00\x00\x00\x00\x00\x00\x00\x00\x00\x00\x00\x00\x00\x00\x00\x00\x00\x00\x00\x00\x00\x00\x00\x00\x00\x00\x00\x00\x00\x00\x00\x00\x00\x00\x00\x00\x00\x00\x00\x00\x00\x00\xb1\x00\x00\x00\xd4e\xc9AZINC04658557 -> s1 -> ZINC04658554 -> k2 -> ZINC01532864 -> s2 -> ZINC00901639\x00\x00\x00\x00\x00\x00\x00\x00\x00\x00\x00\x00\x00\x00\x00\x00\x00\x00\x00\x00\x00\x00\x00\x00\x00\x00\x00\x00\x00\x00\x00\x00\x00\x00\x00\x00\x00\x00\x00\x00\x00\x00\x00\x00\x00\x00\x00\x00\x00\x00\x00\x00\x00\x00\x00\x00\x00\x00\x00\x00\x00\x00\x00\x00\x00\x00\x00\x00\x00\x00\x00\x00\x00\x00\x00\x00\x00\x00\x00\x00\x00\x00\x00\x00\x00\x00\x00\x00\x00\x00\x00\x00\x00\x00\x00\x00\x00\x00\x00\x00\x00\x00\x00\x00\x00\x00\x00\x00\x00\x00\x00\x00\x00\x00\x00\x00\x00\x00\x00\x00\x00\x00\xa4\x02\x00\x00'
p46
tp47
bsS'conv_test_stds'
p48
NsS'pathdict'
p49
(dp50
I1
(lp51
(lp52
S'ZINC00902225'
p53
aS'k1'
p54
aS'ZINC18168715'
p55
aS'k2'
p56
aS'ZINC02562361'
p57
aS'k4'
p58
aS'ZINC30725157'
p59
aa(lp60
S'ZINC00902225'
p61
aS'k1'
p62
aS'ZINC18168715'
p63
aS'k2'
p64
aS'ZINC02562361'
p65
aS'k4'
p66
aS'ZINC30725161'
p67
aa(lp68
S'ZINC00895279'
p69
aS'k1'
p70
aS'ZINC18168715'
p71
aS'k2'
p72
aS'ZINC02562361'
p73
aS'k4'
p74
aS'ZINC30725157'
p75
aa(lp76
S'ZINC00895279'
p77
aS'k1'
p78
aS'ZINC18168715'
p79
aS'k2'
p80
aS'ZINC02562361'
p81
aS'k4'
p82
aS'ZINC30725161'
p83
aasI2
(lp84
(lp85
S'ZINC03606137'
p86
aS'k3'
p87
aS'ZINC18168715'
p88
aS'k2'
p89
aS'ZINC02562361'
p90
aS'k4'
p91
aS'ZINC30725157'
p92
aa(lp93
S'ZINC03606137'
p94
aS'k3'
p95
aS'ZINC18168715'
p96
aS'k2'
p97
aS'ZINC02562361'
p98
aS'k4'
p99
aS'ZINC30725161'
p100
aasI3
(lp101
sI4
(lp102
sI5
(lp103
sI6
(lp104
sI7
(lp105
sI8
(lp106
sI9
(lp107
sI10
(lp108
sI11
(lp109
(lp110
S'ZINC00902225'
p111
aS'k1'
p112
aS'ZINC18168715'
p113
aS'k2'
p114
aS'ZINC02562361'
p115
aS'k4'
p116
aS'ZINC30725157'
p117
aa(lp118
S'ZINC00902225'
p119
aS'k1'
p120
aS'ZINC18168715'
p121
aS'k2'
p122
aS'ZINC02562361'
p123
aS'k4'
p124
aS'ZINC30725161'
p125
aa(lp126
S'ZINC00895279'
p127
aS'k1'
p128
aS'ZINC18168715'
p129
aS'k2'
p130
aS'ZINC02562361'
p131
aS'k4'
p132
aS'ZINC30725157'
p133
aa(lp134
S'ZINC00895279'
p135
aS'k1'
p136
aS'ZINC18168715'
p137
aS'k2'
p138
aS'ZINC02562361'
p139
aS'k4'
p140
aS'ZINC30725161'
p141
aasI12
(lp142
sI13
(lp143
sI14
(lp144
sI15
(lp145
sI16
(lp146
sI17
(lp147
sI18
(lp148
sI19
(lp149
sI20
(lp150
sI21
(lp151
sI22
(lp152
sI23
(lp153
(lp154
S'ZINC00895279'
p155
aS'k1'
p156
aS'ZINC18168715'
p157
aS'k2'
p158
aS'ZINC02562361'
p159
aS'k4'
p160
aS'ZINC30725161'
p161
aa(lp162
S'ZINC00895279'
p163
aS'k1'
p164
aS'ZINC18168715'
p165
aS'k2'
p166
aS'ZINC02562361'
p167
aS'k4'
p168
aS'ZINC30725157'
p169
aa(lp170
S'ZINC00902225'
p171
aS'k1'
p172
aS'ZINC18168715'
p173
aS'k2'
p174
aS'ZINC02562361'
p175
aS'k4'
p176
aS'ZINC30725161'
p177
aa(lp178
S'ZINC00902225'
p179
aS'k1'
p180
aS'ZINC18168715'
p181
aS'k2'
p182
aS'ZINC02562361'
p183
aS'k4'
p184
aS'ZINC30725157'
p185
aasI24
(lp186
sI25
(lp187
sI26
(lp188
sI27
(lp189
sI28
(lp190
sI29
(lp191
sI30
(lp192
sI31
(lp193
sI32
(lp194
sI33
(lp195
sI34
(lp196
sI35
(lp197
sI36
(lp198
sI37
(lp199
sI38
(lp200
sI39
(lp201
sI40
(lp202
(lp203
S'ZINC03606137'
p204
aS'k2'
p205
aS'ZINC03870009'
p206
aS'k3'
p207
aS'ZINC02562361'
p208
aS'k4'
p209
aS'ZINC30725157'
p210
aa(lp211
S'ZINC03606137'
p212
aS'k2'
p213
aS'ZINC03870009'
p214
aS'k3'
p215
aS'ZINC02562361'
p216
aS'k4'
p217
aS'ZINC30725161'
p218
aasI41
(lp219
sI42
(lp220
sI43
(lp221
sI44
(lp222
sI45
(lp223
sI46
(lp224
sI47
(lp225
(lp226
S'ZINC01532567'
p227
aS'k3'
p228
aS'ZINC00902225'
p229
aS'k1'
p230
aS'ZINC18168715'
p231
aS'k2'
p232
aS'ZINC03870005'
p233
aa(lp234
S'ZINC01532567'
p235
aS'k3'
p236
aS'ZINC00902225'
p237
aS'k1'
p238
aS'ZINC18168715'
p239
aS'k2'
p240
aS'ZINC02562361'
p241
aasI48
(lp242
sI49
(lp243
sI50
(lp244
sI51
(lp245
sI52
(lp246
sI53
(lp247
sI54
(lp248
sI55
(lp249
sI56
(lp250
sI57
(lp251
sI58
(lp252
sI59
(lp253
(lp254
S'ZINC03606137'
p255
aS'k2'
p256
aS'ZINC03870009'
p257
aS'k3'
p258
aS'ZINC02562361'
p259
aS'k4'
p260
aS'ZINC30725157'
p261
aa(lp262
S'ZINC03606137'
p263
aS'k2'
p264
aS'ZINC03870009'
p265
aS'k3'
p266
aS'ZINC02562361'
p267
aS'k4'
p268
aS'ZINC30725161'
p269
aasI60
(lp270
sI61
(lp271
sI62
(lp272
sI63
(lp273
(lp274
S'ZINC00895279'
p275
aS'k1'
p276
aS'ZINC18168715'
p277
aS'k2'
p278
aS'ZINC02562361'
p279
aS'k4'
p280
aS'ZINC30725157'
p281
aa(lp282
S'ZINC00895279'
p283
aS'k1'
p284
aS'ZINC18168715'
p285
aS'k2'
p286
aS'ZINC02562361'
p287
aS'k4'
p288
aS'ZINC30725161'
p289
aa(lp290
S'ZINC00902225'
p291
aS'k1'
p292
aS'ZINC18168715'
p293
aS'k2'
p294
aS'ZINC02562361'
p295
aS'k4'
p296
aS'ZINC30725157'
p297
aa(lp298
S'ZINC00902225'
p299
aS'k1'
p300
aS'ZINC18168715'
p301
aS'k2'
p302
aS'ZINC02562361'
p303
aS'k4'
p304
aS'ZINC30725161'
p305
aasI64
(lp306
sI65
(lp307
sI66
(lp308
sI67
(lp309
sI68
(lp310
sI69
(lp311
sI70
(lp312
sI71
(lp313
sI72
(lp314
sI73
(lp315
sI74
(lp316
sI75
(lp317
sI76
(lp318
sI77
(lp319
sI78
(lp320
sI79
(lp321
sI80
(lp322
sI81
(lp323
sI82
(lp324
sI83
(lp325
sI84
(lp326
sI85
(lp327
sI86
(lp328
sI87
(lp329
sI88
(lp330
sI89
(lp331
sI90
(lp332
sI91
(lp333
sI92
(lp334
sI93
(lp335
sI94
(lp336
sI95
(lp337
sI96
(lp338
sI97
(lp339
sI98
(lp340
sI99
(lp341
(lp342
S'ZINC03606137'
p343
aS'k3'
p344
aS'ZINC18168715'
p345
aS'k2'
p346
aS'ZINC02562361'
p347
aS'k4'
p348
aS'ZINC30725157'
p349
aa(lp350
S'ZINC03606137'
p351
aS'k3'
p352
aS'ZINC18168715'
p353
aS'k2'
p354
aS'ZINC02562361'
p355
aS'k4'
p356
aS'ZINC30725161'
p357
aasI100
(lp358
sI101
(lp359
sI102
(lp360
sI103
(lp361
(lp362
S'ZINC01532567'
p363
aS'k3'
p364
aS'ZINC00902225'
p365
aS'k1'
p366
aS'ZINC18168715'
p367
aS'k2'
p368
aS'ZINC02562361'
p369
aa(lp370
S'ZINC01532567'
p371
aS'k3'
p372
aS'ZINC00902225'
p373
aS'k1'
p374
aS'ZINC18168715'
p375
aS'k2'
p376
aS'ZINC03870005'
p377
aasI104
(lp378
(lp379
S'ZINC03606137'
p380
aS'k3'
p381
aS'ZINC18168715'
p382
aS'k2'
p383
aS'ZINC02562361'
p384
aS'k4'
p385
aS'ZINC30725157'
p386
aa(lp387
S'ZINC03606137'
p388
aS'k3'
p389
aS'ZINC18168715'
p390
aS'k2'
p391
aS'ZINC02562361'
p392
aS'k4'
p393
aS'ZINC30725161'
p394
aasI105
(lp395
sI106
(lp396
sI107
(lp397
sI108
(lp398
sI109
(lp399
sI110
(lp400
sI111
(lp401
sI112
(lp402
sI113
(lp403
sI114
(lp404
sI115
(lp405
sI116
(lp406
sI117
(lp407
sI118
(lp408
sI119
(lp409
sI120
(lp410
sI121
(lp411
sI122
(lp412
sI123
(lp413
sI124
(lp414
sI125
(lp415
sI126
(lp416
sI127
(lp417
sI128
(lp418
sI129
(lp419
sI130
(lp420
sI131
(lp421
sI132
(lp422
sI133
(lp423
sI134
(lp424
sI135
(lp425
sI136
(lp426
sI137
(lp427
(lp428
S'ZINC03606137'
p429
aS'k3'
p430
aS'ZINC18168715'
p431
aS'k2'
p432
aS'ZINC02562361'
p433
aS'k4'
p434
aS'ZINC30725157'
p435
aa(lp436
S'ZINC03606137'
p437
aS'k3'
p438
aS'ZINC18168715'
p439
aS'k2'
p440
aS'ZINC02562361'
p441
aS'k4'
p442
aS'ZINC30725161'
p443
aasI138
(lp444
sI139
(lp445
(lp446
S'ZINC00895279'
p447
aS'k1'
p448
aS'ZINC18168715'
p449
aS'k2'
p450
aS'ZINC02562361'
p451
aS'k4'
p452
aS'ZINC30725157'
p453
aa(lp454
S'ZINC00895279'
p455
aS'k1'
p456
aS'ZINC18168715'
p457
aS'k2'
p458
aS'ZINC02562361'
p459
aS'k4'
p460
aS'ZINC30725161'
p461
aa(lp462
S'ZINC00902225'
p463
aS'k1'
p464
aS'ZINC18168715'
p465
aS'k2'
p466
aS'ZINC02562361'
p467
aS'k4'
p468
aS'ZINC30725161'
p469
aa(lp470
S'ZINC00902225'
p471
aS'k1'
p472
aS'ZINC18168715'
p473
aS'k2'
p474
aS'ZINC02562361'
p475
aS'k4'
p476
aS'ZINC30725157'
p477
aasI140
(lp478
sI141
(lp479
sI142
(lp480
sI143
(lp481
sI144
(lp482
sI145
(lp483
sI146
(lp484
sI147
(lp485
sI148
(lp486
sI149
(lp487
sI150
(lp488
sI151
(lp489
sI152
(lp490
(lp491
S'ZINC00902225'
p492
aS'k1'
p493
aS'ZINC18168715'
p494
aS'k2'
p495
aS'ZINC02562361'
p496
aS'k4'
p497
aS'ZINC30725157'
p498
aa(lp499
S'ZINC00902225'
p500
aS'k1'
p501
aS'ZINC18168715'
p502
aS'k2'
p503
aS'ZINC02562361'
p504
aS'k4'
p505
aS'ZINC30725161'
p506
aa(lp507
S'ZINC00895279'
p508
aS'k1'
p509
aS'ZINC18168715'
p510
aS'k2'
p511
aS'ZINC02562361'
p512
aS'k4'
p513
aS'ZINC30725161'
p514
aa(lp515
S'ZINC00895279'
p516
aS'k1'
p517
aS'ZINC18168715'
p518
aS'k2'
p519
aS'ZINC02562361'
p520
aS'k4'
p521
aS'ZINC30725157'
p522
aasI153
(lp523
sI154
(lp524
sI155
(lp525
sI156
(lp526
sI157
(lp527
sI158
(lp528
sI159
(lp529
sI160
(lp530
sI161
(lp531
sI162
(lp532
sI163
(lp533
sI164
(lp534
sI165
(lp535
sI166
(lp536
sI167
(lp537
sI168
(lp538
sI169
(lp539
sI170
(lp540
sI171
(lp541
sI172
(lp542
sI173
(lp543
sI174
(lp544
sI175
(lp545
sI176
(lp546
sI177
(lp547
(lp548
S'ZINC04658557'
p549
aS's1'
p550
aS'ZINC04658554'
p551
aS'k2'
p552
aS'ZINC01532865'
p553
aS's2'
p554
aS'ZINC00895967'
p555
aasI178
(lp556
sI179
(lp557
sI180
(lp558
sI181
(lp559
sI182
(lp560
sI183
(lp561
sI184
(lp562
sI185
(lp563
sI186
(lp564
sI187
(lp565
sI188
(lp566
sI189
(lp567
sI190
(lp568
sI191
(lp569
sI192
(lp570
sI193
(lp571
sI194
(lp572
sI195
(lp573
sI196
(lp574
sI197
(lp575
sI198
(lp576
sI199
(lp577
(lp578
S'ZINC00895279'
p579
aS'k1'
p580
aS'ZINC18168715'
p581
aS'k2'
p582
aS'ZINC02562361'
p583
aS'k4'
p584
aS'ZINC30725161'
p585
aa(lp586
S'ZINC00902225'
p587
aS'k1'
p588
aS'ZINC18168715'
p589
aS'k2'
p590
aS'ZINC02562361'
p591
aS'k4'
p592
aS'ZINC30725161'
p593
aa(lp594
S'ZINC00902225'
p595
aS'k1'
p596
aS'ZINC18168715'
p597
aS'k2'
p598
aS'ZINC02562361'
p599
aS'k4'
p600
aS'ZINC30725157'
p601
aa(lp602
S'ZINC00895279'
p603
aS'k1'
p604
aS'ZINC18168715'
p605
aS'k2'
p606
aS'ZINC02562361'
p607
aS'k4'
p608
aS'ZINC30725157'
p609
aasI200
(lp610
sI201
(lp611
sI202
(lp612
sI203
(lp613
sI204
(lp614
sI205
(lp615
sI206
(lp616
sI207
(lp617
sI208
(lp618
sI209
(lp619
sI210
(lp620
sI211
(lp621
sI212
(lp622
sI213
(lp623
sI214
(lp624
sI215
(lp625
sI216
(lp626
sI217
(lp627
sI218
(lp628
sI219
(lp629
(lp630
S'ZINC00895279'
p631
aS'k1'
p632
aS'ZINC18168715'
p633
aS'k2'
p634
aS'ZINC02562361'
p635
aS'k4'
p636
aS'ZINC30725157'
p637
aa(lp638
S'ZINC00902225'
p639
aS'k1'
p640
aS'ZINC18168715'
p641
aS'k2'
p642
aS'ZINC02562361'
p643
aS'k4'
p644
aS'ZINC30725157'
p645
aa(lp646
S'ZINC00902225'
p647
aS'k1'
p648
aS'ZINC18168715'
p649
aS'k2'
p650
aS'ZINC02562361'
p651
aS'k4'
p652
aS'ZINC30725161'
p653
aa(lp654
S'ZINC00895279'
p655
aS'k1'
p656
aS'ZINC18168715'
p657
aS'k2'
p658
aS'ZINC02562361'
p659
aS'k4'
p660
aS'ZINC30725161'
p661
aasI220
(lp662
sI221
(lp663
sI222
(lp664
sI223
(lp665
sI224
(lp666
sI225
(lp667
(lp668
S'ZINC00895279'
p669
aS'k1'
p670
aS'ZINC18168715'
p671
aS'k2'
p672
aS'ZINC02562361'
p673
aS'k4'
p674
aS'ZINC30725157'
p675
aa(lp676
S'ZINC00902225'
p677
aS'k1'
p678
aS'ZINC18168715'
p679
aS'k2'
p680
aS'ZINC02562361'
p681
aS'k4'
p682
aS'ZINC30725157'
p683
aa(lp684
S'ZINC00895279'
p685
aS'k1'
p686
aS'ZINC18168715'
p687
aS'k2'
p688
aS'ZINC02562361'
p689
aS'k4'
p690
aS'ZINC30725161'
p691
aa(lp692
S'ZINC00902225'
p693
aS'k1'
p694
aS'ZINC18168715'
p695
aS'k2'
p696
aS'ZINC02562361'
p697
aS'k4'
p698
aS'ZINC30725161'
p699
aasI226
(lp700
sI227
(lp701
sI228
(lp702
sI229
(lp703
sI230
(lp704
sI231
(lp705
sI232
(lp706
sI233
(lp707
sI234
(lp708
(lp709
S'ZINC00895279'
p710
aS'k1'
p711
aS'ZINC18168715'
p712
aS'k2'
p713
aS'ZINC02562361'
p714
aS'k4'
p715
aS'ZINC30725161'
p716
aa(lp717
S'ZINC00895279'
p718
aS'k1'
p719
aS'ZINC18168715'
p720
aS'k2'
p721
aS'ZINC02562361'
p722
aS'k4'
p723
aS'ZINC30725157'
p724
aa(lp725
S'ZINC00902225'
p726
aS'k1'
p727
aS'ZINC18168715'
p728
aS'k2'
p729
aS'ZINC02562361'
p730
aS'k4'
p731
aS'ZINC30725157'
p732
aa(lp733
S'ZINC00902225'
p734
aS'k1'
p735
aS'ZINC18168715'
p736
aS'k2'
p737
aS'ZINC02562361'
p738
aS'k4'
p739
aS'ZINC30725161'
p740
aasI235
(lp741
(lp742
S'ZINC00902225'
p743
aS'k1'
p744
aS'ZINC18168715'
p745
aS'k2'
p746
aS'ZINC02562361'
p747
aS'k4'
p748
aS'ZINC30725161'
p749
aa(lp750
S'ZINC00902225'
p751
aS'k1'
p752
aS'ZINC18168715'
p753
aS'k2'
p754
aS'ZINC02562361'
p755
aS'k4'
p756
aS'ZINC30725157'
p757
aa(lp758
S'ZINC00895279'
p759
aS'k1'
p760
aS'ZINC18168715'
p761
aS'k2'
p762
aS'ZINC02562361'
p763
aS'k4'
p764
aS'ZINC30725161'
p765
aa(lp766
S'ZINC00895279'
p767
aS'k1'
p768
aS'ZINC18168715'
p769
aS'k2'
p770
aS'ZINC02562361'
p771
aS'k4'
p772
aS'ZINC30725157'
p773
aasI236
(lp774
sI237
(lp775
sI238
(lp776
sI239
(lp777
sI240
(lp778
sI241
(lp779
sI242
(lp780
sI243
(lp781
sI244
(lp782
sI245
(lp783
sI246
(lp784
sI247
(lp785
sI248
(lp786
(lp787
S'ZINC03606137'
p788
aS'k3'
p789
aS'ZINC18168715'
p790
aS'k2'
p791
aS'ZINC02562361'
p792
aS'k4'
p793
aS'ZINC30725161'
p794
aa(lp795
S'ZINC03606137'
p796
aS'k3'
p797
aS'ZINC18168715'
p798
aS'k2'
p799
aS'ZINC02562361'
p800
aS'k4'
p801
aS'ZINC30725157'
p802
aasI249
(lp803
sI250
(lp804
sI251
(lp805
sI252
(lp806
sI253
(lp807
sI254
(lp808
sI255
(lp809
sI256
(lp810
sI257
(lp811
sI258
(lp812
sI259
(lp813
sI260
(lp814
sI261
(lp815
sI262
(lp816
sI263
(lp817
sI264
(lp818
sI265
(lp819
sI266
(lp820
sI267
(lp821
sI268
(lp822
sI269
(lp823
sI270
(lp824
sI271
(lp825
sI272
(lp826
sI273
(lp827
sI274
(lp828
sI275
(lp829
sI276
(lp830
sI277
(lp831
sI278
(lp832
sI279
(lp833
sI280
(lp834
sI281
(lp835
sI282
(lp836
sI283
(lp837
sI284
(lp838
sI285
(lp839
sI286
(lp840
sI287
(lp841
sI288
(lp842
sI289
(lp843
sI290
(lp844
sI291
(lp845
sI292
(lp846
sI293
(lp847
sI294
(lp848
sI295
(lp849
(lp850
S'ZINC03606137'
p851
aS'k3'
p852
aS'ZINC18168715'
p853
aS'k2'
p854
aS'ZINC02562361'
p855
aS'k4'
p856
aS'ZINC30725157'
p857
aa(lp858
S'ZINC03606137'
p859
aS'k3'
p860
aS'ZINC18168715'
p861
aS'k2'
p862
aS'ZINC02562361'
p863
aS'k4'
p864
aS'ZINC30725161'
p865
aasI296
(lp866
sI297
(lp867
sI298
(lp868
sI299
(lp869
sI300
(lp870
sI301
(lp871
sI302
(lp872
sI303
(lp873
sI304
(lp874
sI305
(lp875
sI306
(lp876
sI307
(lp877
sI308
(lp878
sI309
(lp879
sI310
(lp880
sI311
(lp881
sI312
(lp882
sI313
(lp883
sI314
(lp884
sI315
(lp885
sI316
(lp886
sI317
(lp887
sI318
(lp888
sI319
(lp889
sI320
(lp890
sI321
(lp891
sI322
(lp892
sI323
(lp893
sI324
(lp894
sI325
(lp895
sI326
(lp896
sI327
(lp897
sI328
(lp898
(lp899
S'ZINC03606137'
p900
aS'k3'
p901
aS'ZINC18168715'
p902
aS'k2'
p903
aS'ZINC02562361'
p904
aS'k4'
p905
aS'ZINC30725157'
p906
aa(lp907
S'ZINC03606137'
p908
aS'k3'
p909
aS'ZINC18168715'
p910
aS'k2'
p911
aS'ZINC02562361'
p912
aS'k4'
p913
aS'ZINC30725161'
p914
aasI329
(lp915
sI330
(lp916
sI331
(lp917
sI332
(lp918
sI333
(lp919
sI334
(lp920
sI335
(lp921
sI336
(lp922
sI337
(lp923
sI338
(lp924
sI339
(lp925
sI340
(lp926
sI341
(lp927
sI342
(lp928
sI343
(lp929
(lp930
S'ZINC00902225'
p931
aS'k1'
p932
aS'ZINC18168715'
p933
aS'k2'
p934
aS'ZINC02562361'
p935
aS'k4'
p936
aS'ZINC30725157'
p937
aa(lp938
S'ZINC00895279'
p939
aS'k1'
p940
aS'ZINC18168715'
p941
aS'k2'
p942
aS'ZINC02562361'
p943
aS'k4'
p944
aS'ZINC30725157'
p945
aa(lp946
S'ZINC00895279'
p947
aS'k1'
p948
aS'ZINC18168715'
p949
aS'k2'
p950
aS'ZINC02562361'
p951
aS'k4'
p952
aS'ZINC30725161'
p953
aa(lp954
S'ZINC00902225'
p955
aS'k1'
p956
aS'ZINC18168715'
p957
aS'k2'
p958
aS'ZINC02562361'
p959
aS'k4'
p960
aS'ZINC30725161'
p961
aasI344
(lp962
sI345
(lp963
sI346
(lp964
sI347
(lp965
sI348
(lp966
sI349
(lp967
sI350
(lp968
sI351
(lp969
sI352
(lp970
sI353
(lp971
sI354
(lp972
sI355
(lp973
sI356
(lp974
(lp975
S'ZINC00895279'
p976
aS'k1'
p977
aS'ZINC18168715'
p978
aS'k2'
p979
aS'ZINC02562361'
p980
aS'k4'
p981
aS'ZINC30725157'
p982
aa(lp983
S'ZINC00895279'
p984
aS'k1'
p985
aS'ZINC18168715'
p986
aS'k2'
p987
aS'ZINC02562361'
p988
aS'k4'
p989
aS'ZINC30725161'
p990
aa(lp991
S'ZINC00902225'
p992
aS'k1'
p993
aS'ZINC18168715'
p994
aS'k2'
p995
aS'ZINC02562361'
p996
aS'k4'
p997
aS'ZINC30725161'
p998
aa(lp999
S'ZINC00902225'
p1000
aS'k1'
p1001
aS'ZINC18168715'
p1002
aS'k2'
p1003
aS'ZINC02562361'
p1004
aS'k4'
p1005
aS'ZINC30725157'
p1006
aasI357
(lp1007
sI358
(lp1008
sI359
(lp1009
sI360
(lp1010
sI361
(lp1011
sI362
(lp1012
sI363
(lp1013
sI364
(lp1014
sI365
(lp1015
(lp1016
S'ZINC03606137'
p1017
aS'k3'
p1018
aS'ZINC18168715'
p1019
aS'k2'
p1020
aS'ZINC02562361'
p1021
aS'k4'
p1022
aS'ZINC30725161'
p1023
aa(lp1024
S'ZINC03606137'
p1025
aS'k3'
p1026
aS'ZINC18168715'
p1027
aS'k2'
p1028
aS'ZINC02562361'
p1029
aS'k4'
p1030
aS'ZINC30725157'
p1031
aasI366
(lp1032
sI367
(lp1033
sI368
(lp1034
sI369
(lp1035
sI370
(lp1036
(lp1037
S'ZINC00902225'
p1038
aS'k1'
p1039
aS'ZINC18168715'
p1040
aS'k2'
p1041
aS'ZINC02562361'
p1042
aS'k4'
p1043
aS'ZINC30725161'
p1044
aa(lp1045
S'ZINC00902225'
p1046
aS'k1'
p1047
aS'ZINC18168715'
p1048
aS'k2'
p1049
aS'ZINC02562361'
p1050
aS'k4'
p1051
aS'ZINC30725157'
p1052
aa(lp1053
S'ZINC00895279'
p1054
aS'k1'
p1055
aS'ZINC18168715'
p1056
aS'k2'
p1057
aS'ZINC02562361'
p1058
aS'k4'
p1059
aS'ZINC30725157'
p1060
aa(lp1061
S'ZINC00895279'
p1062
aS'k1'
p1063
aS'ZINC18168715'
p1064
aS'k2'
p1065
aS'ZINC02562361'
p1066
aS'k4'
p1067
aS'ZINC30725161'
p1068
aasI371
(lp1069
sI372
(lp1070
sI373
(lp1071
sI374
(lp1072
(lp1073
S'ZINC03606137'
p1074
aS'k3'
p1075
aS'ZINC18168715'
p1076
aS'k2'
p1077
aS'ZINC02562361'
p1078
aS'k4'
p1079
aS'ZINC30725157'
p1080
aa(lp1081
S'ZINC03606137'
p1082
aS'k3'
p1083
aS'ZINC18168715'
p1084
aS'k2'
p1085
aS'ZINC02562361'
p1086
aS'k4'
p1087
aS'ZINC30725161'
p1088
aasI375
(lp1089
sI376
(lp1090
sI377
(lp1091
sI378
(lp1092
sI379
(lp1093
sI380
(lp1094
sI381
(lp1095
sI382
(lp1096
sI383
(lp1097
sI384
(lp1098
sI385
(lp1099
sI386
(lp1100
sI387
(lp1101
(lp1102
S'ZINC04658557'
p1103
aS's1'
p1104
aS'ZINC04658554'
p1105
aS'k2'
p1106
aS'ZINC01532865'
p1107
aS's2'
p1108
aS'ZINC00895967'
p1109
aasI388
(lp1110
(lp1111
S'ZINC03606137'
p1112
aS'k2'
p1113
aS'ZINC03870009'
p1114
aS'k3'
p1115
aS'ZINC02562361'
p1116
aS'k4'
p1117
aS'ZINC30725157'
p1118
aa(lp1119
S'ZINC03606137'
p1120
aS'k2'
p1121
aS'ZINC03870009'
p1122
aS'k3'
p1123
aS'ZINC02562361'
p1124
aS'k4'
p1125
aS'ZINC30725161'
p1126
aasI389
(lp1127
sI390
(lp1128
sI391
(lp1129
sI392
(lp1130
(lp1131
S'ZINC04658557'
p1132
aS's1'
p1133
aS'ZINC04658554'
p1134
aS'k2'
p1135
aS'ZINC01532865'
p1136
aS's2'
p1137
aS'ZINC00895967'
p1138
aasI393
(lp1139
sI394
(lp1140
sI395
(lp1141
sI396
(lp1142
sI397
(lp1143
sI398
(lp1144
sI399
(lp1145
sI400
(lp1146
sI401
(lp1147
sI402
(lp1148
sI403
(lp1149
sI404
(lp1150
sI405
(lp1151
sI406
(lp1152
sI407
(lp1153
sI408
(lp1154
sI409
(lp1155
sI410
(lp1156
sI411
(lp1157
sI412
(lp1158
sI413
(lp1159
sI414
(lp1160
(lp1161
S'ZINC03606137'
p1162
aS'k3'
p1163
aS'ZINC18168715'
p1164
aS'k2'
p1165
aS'ZINC02562361'
p1166
aS'k4'
p1167
aS'ZINC30725157'
p1168
aa(lp1169
S'ZINC03606137'
p1170
aS'k3'
p1171
aS'ZINC18168715'
p1172
aS'k2'
p1173
aS'ZINC02562361'
p1174
aS'k4'
p1175
aS'ZINC30725161'
p1176
aasI415
(lp1177
sI416
(lp1178
sI417
(lp1179
sI418
(lp1180
sI419
(lp1181
sI420
(lp1182
sI421
(lp1183
sI422
(lp1184
sI423
(lp1185
sI424
(lp1186
sI425
(lp1187
sI426
(lp1188
sI427
(lp1189
sI428
(lp1190
sI429
(lp1191
sI430
(lp1192
sI431
(lp1193
sI432
(lp1194
sI433
(lp1195
sI434
(lp1196
sI435
(lp1197
sI436
(lp1198
sI437
(lp1199
sI438
(lp1200
sI439
(lp1201
sI440
(lp1202
sI441
(lp1203
sI442
(lp1204
sI443
(lp1205
sI444
(lp1206
sI445
(lp1207
sI446
(lp1208
sI447
(lp1209
sI448
(lp1210
sI449
(lp1211
sI450
(lp1212
sI451
(lp1213
sI452
(lp1214
(lp1215
S'ZINC00895279'
p1216
aS'k1'
p1217
aS'ZINC18168715'
p1218
aS'k2'
p1219
aS'ZINC02562361'
p1220
aS'k4'
p1221
aS'ZINC30725157'
p1222
aa(lp1223
S'ZINC00902225'
p1224
aS'k1'
p1225
aS'ZINC18168715'
p1226
aS'k2'
p1227
aS'ZINC02562361'
p1228
aS'k4'
p1229
aS'ZINC30725157'
p1230
aa(lp1231
S'ZINC00895279'
p1232
aS'k1'
p1233
aS'ZINC18168715'
p1234
aS'k2'
p1235
aS'ZINC02562361'
p1236
aS'k4'
p1237
aS'ZINC30725161'
p1238
aa(lp1239
S'ZINC00902225'
p1240
aS'k1'
p1241
aS'ZINC18168715'
p1242
aS'k2'
p1243
aS'ZINC02562361'
p1244
aS'k4'
p1245
aS'ZINC30725161'
p1246
aasI453
(lp1247
sI454
(lp1248
sI455
(lp1249
sI456
(lp1250
sI457
(lp1251
sI458
(lp1252
sI459
(lp1253
sI460
(lp1254
sI461
(lp1255
sI462
(lp1256
sI463
(lp1257
sI464
(lp1258
sI465
(lp1259
sI466
(lp1260
sI467
(lp1261
(lp1262
S'ZINC04658557'
p1263
aS's1'
p1264
aS'ZINC04658554'
p1265
aS'k2'
p1266
aS'ZINC01532865'
p1267
aS's2'
p1268
aS'ZINC00895967'
p1269
aasI468
(lp1270
sI469
(lp1271
sI470
(lp1272
sI471
(lp1273
sI472
(lp1274
sI473
(lp1275
sI474
(lp1276
sI475
(lp1277
sI476
(lp1278
(lp1279
S'ZINC00895279'
p1280
aS'k1'
p1281
aS'ZINC18168715'
p1282
aS'k2'
p1283
aS'ZINC02562361'
p1284
aS'k4'
p1285
aS'ZINC30725157'
p1286
aa(lp1287
S'ZINC00902225'
p1288
aS'k1'
p1289
aS'ZINC18168715'
p1290
aS'k2'
p1291
aS'ZINC02562361'
p1292
aS'k4'
p1293
aS'ZINC30725157'
p1294
aa(lp1295
S'ZINC00902225'
p1296
aS'k1'
p1297
aS'ZINC18168715'
p1298
aS'k2'
p1299
aS'ZINC02562361'
p1300
aS'k4'
p1301
aS'ZINC30725161'
p1302
aa(lp1303
S'ZINC00895279'
p1304
aS'k1'
p1305
aS'ZINC18168715'
p1306
aS'k2'
p1307
aS'ZINC02562361'
p1308
aS'k4'
p1309
aS'ZINC30725161'
p1310
aasI477
(lp1311
sI478
(lp1312
sI479
(lp1313
sI480
(lp1314
sI481
(lp1315
sI482
(lp1316
sI483
(lp1317
sI484
(lp1318
sI485
(lp1319
sI486
(lp1320
sI487
(lp1321
sI488
(lp1322
sI489
(lp1323
(lp1324
S'ZINC03606137'
p1325
aS'k3'
p1326
aS'ZINC18168715'
p1327
aS'k2'
p1328
aS'ZINC02562361'
p1329
aS'k4'
p1330
aS'ZINC30725157'
p1331
aa(lp1332
S'ZINC03606137'
p1333
aS'k3'
p1334
aS'ZINC18168715'
p1335
aS'k2'
p1336
aS'ZINC02562361'
p1337
aS'k4'
p1338
aS'ZINC30725161'
p1339
aasI490
(lp1340
sI491
(lp1341
sI492
(lp1342
sI493
(lp1343
sI494
(lp1344
sI495
(lp1345
sI496
(lp1346
sI497
(lp1347
sI498
(lp1348
sI499
(lp1349
sI500
(lp1350
sI501
(lp1351
(lp1352
S'ZINC00902225'
p1353
aS'k1'
p1354
aS'ZINC18168715'
p1355
aS'k2'
p1356
aS'ZINC02562361'
p1357
aS'k4'
p1358
aS'ZINC30725161'
p1359
aa(lp1360
S'ZINC00895279'
p1361
aS'k1'
p1362
aS'ZINC18168715'
p1363
aS'k2'
p1364
aS'ZINC02562361'
p1365
aS'k4'
p1366
aS'ZINC30725161'
p1367
aa(lp1368
S'ZINC00902225'
p1369
aS'k1'
p1370
aS'ZINC18168715'
p1371
aS'k2'
p1372
aS'ZINC02562361'
p1373
aS'k4'
p1374
aS'ZINC30725157'
p1375
aa(lp1376
S'ZINC00895279'
p1377
aS'k1'
p1378
aS'ZINC18168715'
p1379
aS'k2'
p1380
aS'ZINC02562361'
p1381
aS'k4'
p1382
aS'ZINC30725157'
p1383
aasI502
(lp1384
sI503
(lp1385
sI504
(lp1386
sI505
(lp1387
sI506
(lp1388
sI507
(lp1389
sI508
(lp1390
sI509
(lp1391
sI510
(lp1392
sI511
(lp1393
sI512
(lp1394
sI513
(lp1395
sI514
(lp1396
sI515
(lp1397
sI516
(lp1398
sI517
(lp1399
sI518
(lp1400
sI519
(lp1401
sI520
(lp1402
sI521
(lp1403
sI522
(lp1404
sI523
(lp1405
(lp1406
S'ZINC00902225'
p1407
aS'k1'
p1408
aS'ZINC18168715'
p1409
aS'k2'
p1410
aS'ZINC02562361'
p1411
aS'k4'
p1412
aS'ZINC30725157'
p1413
aa(lp1414
S'ZINC00902225'
p1415
aS'k1'
p1416
aS'ZINC18168715'
p1417
aS'k2'
p1418
aS'ZINC02562361'
p1419
aS'k4'
p1420
aS'ZINC30725161'
p1421
aa(lp1422
S'ZINC00895279'
p1423
aS'k1'
p1424
aS'ZINC18168715'
p1425
aS'k2'
p1426
aS'ZINC02562361'
p1427
aS'k4'
p1428
aS'ZINC30725161'
p1429
aa(lp1430
S'ZINC00895279'
p1431
aS'k1'
p1432
aS'ZINC18168715'
p1433
aS'k2'
p1434
aS'ZINC02562361'
p1435
aS'k4'
p1436
aS'ZINC30725157'
p1437
aasI524
(lp1438
(lp1439
S'ZINC00902225'
p1440
aS'k1'
p1441
aS'ZINC18168715'
p1442
aS'k2'
p1443
aS'ZINC02562361'
p1444
aS'k4'
p1445
aS'ZINC30725157'
p1446
aa(lp1447
S'ZINC00902225'
p1448
aS'k1'
p1449
aS'ZINC18168715'
p1450
aS'k2'
p1451
aS'ZINC02562361'
p1452
aS'k4'
p1453
aS'ZINC30725161'
p1454
aa(lp1455
S'ZINC00895279'
p1456
aS'k1'
p1457
aS'ZINC18168715'
p1458
aS'k2'
p1459
aS'ZINC02562361'
p1460
aS'k4'
p1461
aS'ZINC30725157'
p1462
aa(lp1463
S'ZINC00895279'
p1464
aS'k1'
p1465
aS'ZINC18168715'
p1466
aS'k2'
p1467
aS'ZINC02562361'
p1468
aS'k4'
p1469
aS'ZINC30725161'
p1470
aasI525
(lp1471
sI526
(lp1472
(lp1473
S'ZINC00895279'
p1474
aS'k1'
p1475
aS'ZINC18168715'
p1476
aS'k2'
p1477
aS'ZINC02562361'
p1478
aS'k4'
p1479
aS'ZINC30725161'
p1480
aa(lp1481
S'ZINC00895279'
p1482
aS'k1'
p1483
aS'ZINC18168715'
p1484
aS'k2'
p1485
aS'ZINC02562361'
p1486
aS'k4'
p1487
aS'ZINC30725157'
p1488
aa(lp1489
S'ZINC00902225'
p1490
aS'k1'
p1491
aS'ZINC18168715'
p1492
aS'k2'
p1493
aS'ZINC02562361'
p1494
aS'k4'
p1495
aS'ZINC30725157'
p1496
aa(lp1497
S'ZINC00902225'
p1498
aS'k1'
p1499
aS'ZINC18168715'
p1500
aS'k2'
p1501
aS'ZINC02562361'
p1502
aS'k4'
p1503
aS'ZINC30725161'
p1504
aasI527
(lp1505
sI528
(lp1506
sI529
(lp1507
sI530
(lp1508
sI531
(lp1509
sI532
(lp1510
sI533
(lp1511
sI534
(lp1512
sI535
(lp1513
sI536
(lp1514
sI537
(lp1515
sI538
(lp1516
sI539
(lp1517
sI540
(lp1518
(lp1519
S'ZINC00895279'
p1520
aS'k1'
p1521
aS'ZINC18168715'
p1522
aS'k2'
p1523
aS'ZINC02562361'
p1524
aS'k4'
p1525
aS'ZINC30725157'
p1526
aa(lp1527
S'ZINC00902225'
p1528
aS'k1'
p1529
aS'ZINC18168715'
p1530
aS'k2'
p1531
aS'ZINC02562361'
p1532
aS'k4'
p1533
aS'ZINC30725157'
p1534
aa(lp1535
S'ZINC00902225'
p1536
aS'k1'
p1537
aS'ZINC18168715'
p1538
aS'k2'
p1539
aS'ZINC02562361'
p1540
aS'k4'
p1541
aS'ZINC30725161'
p1542
aa(lp1543
S'ZINC00895279'
p1544
aS'k1'
p1545
aS'ZINC18168715'
p1546
aS'k2'
p1547
aS'ZINC02562361'
p1548
aS'k4'
p1549
aS'ZINC30725161'
p1550
aasI541
(lp1551
sI542
(lp1552
sI543
(lp1553
sI544
(lp1554
sI545
(lp1555
sI546
(lp1556
sI547
(lp1557
(lp1558
S'ZINC00902225'
p1559
aS'k1'
p1560
aS'ZINC18168715'
p1561
aS'k2'
p1562
aS'ZINC02562361'
p1563
aS'k4'
p1564
aS'ZINC30725157'
p1565
aa(lp1566
S'ZINC00902225'
p1567
aS'k1'
p1568
aS'ZINC18168715'
p1569
aS'k2'
p1570
aS'ZINC02562361'
p1571
aS'k4'
p1572
aS'ZINC30725161'
p1573
aa(lp1574
S'ZINC00895279'
p1575
aS'k1'
p1576
aS'ZINC18168715'
p1577
aS'k2'
p1578
aS'ZINC02562361'
p1579
aS'k4'
p1580
aS'ZINC30725161'
p1581
aa(lp1582
S'ZINC00895279'
p1583
aS'k1'
p1584
aS'ZINC18168715'
p1585
aS'k2'
p1586
aS'ZINC02562361'
p1587
aS'k4'
p1588
aS'ZINC30725157'
p1589
aasI548
(lp1590
sI549
(lp1591
sI550
(lp1592
sI551
(lp1593
sI552
(lp1594
sI553
(lp1595
sI554
(lp1596
(lp1597
S'ZINC00902225'
p1598
aS'k1'
p1599
aS'ZINC18168715'
p1600
aS'k2'
p1601
aS'ZINC02562361'
p1602
aS'k4'
p1603
aS'ZINC30725161'
p1604
aa(lp1605
S'ZINC00895279'
p1606
aS'k1'
p1607
aS'ZINC18168715'
p1608
aS'k2'
p1609
aS'ZINC02562361'
p1610
aS'k4'
p1611
aS'ZINC30725161'
p1612
aa(lp1613
S'ZINC00895279'
p1614
aS'k1'
p1615
aS'ZINC18168715'
p1616
aS'k2'
p1617
aS'ZINC02562361'
p1618
aS'k4'
p1619
aS'ZINC30725157'
p1620
aa(lp1621
S'ZINC00902225'
p1622
aS'k1'
p1623
aS'ZINC18168715'
p1624
aS'k2'
p1625
aS'ZINC02562361'
p1626
aS'k4'
p1627
aS'ZINC30725157'
p1628
aasI555
(lp1629
sI556
(lp1630
(lp1631
S'ZINC03606137'
p1632
aS'k3'
p1633
aS'ZINC18168715'
p1634
aS'k2'
p1635
aS'ZINC02562361'
p1636
aS'k4'
p1637
aS'ZINC30725157'
p1638
aa(lp1639
S'ZINC03606137'
p1640
aS'k3'
p1641
aS'ZINC18168715'
p1642
aS'k2'
p1643
aS'ZINC02562361'
p1644
aS'k4'
p1645
aS'ZINC30725161'
p1646
aasI557
(lp1647
sI558
(lp1648
sI559
(lp1649
sI560
(lp1650
sI561
(lp1651
sI562
(lp1652
sI563
(lp1653
sI564
(lp1654
sI565
(lp1655
sI566
(lp1656
sI567
(lp1657
sI568
(lp1658
sI569
(lp1659
sI570
(lp1660
sI571
(lp1661
sI572
(lp1662
sI573
(lp1663
sI574
(lp1664
sI575
(lp1665
sI576
(lp1666
sI577
(lp1667
sI578
(lp1668
sI579
(lp1669
sI580
(lp1670
sI581
(lp1671
sI582
(lp1672
sI583
(lp1673
(lp1674
S'ZINC03606137'
p1675
aS'k2'
p1676
aS'ZINC03870009'
p1677
aS'k3'
p1678
aS'ZINC02562361'
p1679
aS'k4'
p1680
aS'ZINC30725161'
p1681
aa(lp1682
S'ZINC03606137'
p1683
aS'k2'
p1684
aS'ZINC03870009'
p1685
aS'k3'
p1686
aS'ZINC02562361'
p1687
aS'k4'
p1688
aS'ZINC30725157'
p1689
aasI584
(lp1690
sI585
(lp1691
sI586
(lp1692
sI587
(lp1693
sI588
(lp1694
sI589
(lp1695
sI590
(lp1696
sI591
(lp1697
sI592
(lp1698
sI593
(lp1699
sI594
(lp1700
sI595
(lp1701
(lp1702
S'ZINC03606137'
p1703
aS'k3'
p1704
aS'ZINC18168715'
p1705
aS'k2'
p1706
aS'ZINC02562361'
p1707
aS'k4'
p1708
aS'ZINC30725161'
p1709
aa(lp1710
S'ZINC03606137'
p1711
aS'k3'
p1712
aS'ZINC18168715'
p1713
aS'k2'
p1714
aS'ZINC02562361'
p1715
aS'k4'
p1716
aS'ZINC30725157'
p1717
aasI596
(lp1718
sI597
(lp1719
sI598
(lp1720
sI599
(lp1721
sI600
(lp1722
sI601
(lp1723
sI602
(lp1724
sI603
(lp1725
sI604
(lp1726
sI605
(lp1727
sI606
(lp1728
sI607
(lp1729
sI608
(lp1730
sI609
(lp1731
sI610
(lp1732
sI611
(lp1733
sI612
(lp1734
sI613
(lp1735
sI614
(lp1736
sI615
(lp1737
sI616
(lp1738
sI617
(lp1739
sI618
(lp1740
sI619
(lp1741
sI620
(lp1742
sI621
(lp1743
sI622
(lp1744
sI623
(lp1745
sI624
(lp1746
(lp1747
S'ZINC00902225'
p1748
aS'k1'
p1749
aS'ZINC18168715'
p1750
aS'k2'
p1751
aS'ZINC02562361'
p1752
aS'k4'
p1753
aS'ZINC30725161'
p1754
aa(lp1755
S'ZINC00902225'
p1756
aS'k1'
p1757
aS'ZINC18168715'
p1758
aS'k2'
p1759
aS'ZINC02562361'
p1760
aS'k4'
p1761
aS'ZINC30725157'
p1762
aa(lp1763
S'ZINC00895279'
p1764
aS'k1'
p1765
aS'ZINC18168715'
p1766
aS'k2'
p1767
aS'ZINC02562361'
p1768
aS'k4'
p1769
aS'ZINC30725157'
p1770
aa(lp1771
S'ZINC00895279'
p1772
aS'k1'
p1773
aS'ZINC18168715'
p1774
aS'k2'
p1775
aS'ZINC02562361'
p1776
aS'k4'
p1777
aS'ZINC30725161'
p1778
aasI625
(lp1779
sI626
(lp1780
sI627
(lp1781
sI628
(lp1782
sI629
(lp1783
sI630
(lp1784
sI631
(lp1785
sI632
(lp1786
sI633
(lp1787
sI634
(lp1788
sI635
(lp1789
sI636
(lp1790
sI637
(lp1791
sI638
(lp1792
sI639
(lp1793
sI640
(lp1794
sI641
(lp1795
sI642
(lp1796
sI643
(lp1797
sI644
(lp1798
sI645
(lp1799
sI646
(lp1800
sI647
(lp1801
sI648
(lp1802
sI649
(lp1803
sI650
(lp1804
sI651
(lp1805
sI652
(lp1806
sI653
(lp1807
sI654
(lp1808
sI655
(lp1809
sI656
(lp1810
sI657
(lp1811
sI658
(lp1812
sI659
(lp1813
sI660
(lp1814
sI661
(lp1815
sI662
(lp1816
sI663
(lp1817
sI664
(lp1818
sI665
(lp1819
sI666
(lp1820
sI667
(lp1821
sI668
(lp1822
sI669
(lp1823
sI670
(lp1824
sI671
(lp1825
sI672
(lp1826
sI673
(lp1827
sI674
(lp1828
sI675
(lp1829
sI676
(lp1830
(lp1831
S'ZINC04658557'
p1832
aS's1'
p1833
aS'ZINC04658554'
p1834
aS'k2'
p1835
aS'ZINC01532864'
p1836
aS's2'
p1837
aS'ZINC00901639'
p1838
aasI677
(lp1839
sI678
(lp1840
(lp1841
S'ZINC00895279'
p1842
aS'k1'
p1843
aS'ZINC18168715'
p1844
aS'k2'
p1845
aS'ZINC02562361'
p1846
aS'k4'
p1847
aS'ZINC30725157'
p1848
aa(lp1849
S'ZINC00902225'
p1850
aS'k1'
p1851
aS'ZINC18168715'
p1852
aS'k2'
p1853
aS'ZINC02562361'
p1854
aS'k4'
p1855
aS'ZINC30725157'
p1856
aa(lp1857
S'ZINC00902225'
p1858
aS'k1'
p1859
aS'ZINC18168715'
p1860
aS'k2'
p1861
aS'ZINC02562361'
p1862
aS'k4'
p1863
aS'ZINC30725161'
p1864
aa(lp1865
S'ZINC00895279'
p1866
aS'k1'
p1867
aS'ZINC18168715'
p1868
aS'k2'
p1869
aS'ZINC02562361'
p1870
aS'k4'
p1871
aS'ZINC30725161'
p1872
aasI679
(lp1873
sI680
(lp1874
(lp1875
S'ZINC01532567'
p1876
aS'k3'
p1877
aS'ZINC00902225'
p1878
aS'k1'
p1879
aS'ZINC18168715'
p1880
aS'k2'
p1881
aS'ZINC02562361'
p1882
aa(lp1883
S'ZINC01532567'
p1884
aS'k3'
p1885
aS'ZINC00902225'
p1886
aS'k1'
p1887
aS'ZINC18168715'
p1888
aS'k2'
p1889
aS'ZINC03870005'
p1890
aasI681
(lp1891
sI682
(lp1892
sI683
(lp1893
sI684
(lp1894
sI685
(lp1895
sI686
(lp1896
sI687
(lp1897
sI688
(lp1898
sI689
(lp1899
sI690
(lp1900
sI691
(lp1901
sI692
(lp1902
sI693
(lp1903
(lp1904
S'ZINC00895279'
p1905
aS'k1'
p1906
aS'ZINC18168715'
p1907
aS'k2'
p1908
aS'ZINC02562361'
p1909
aS'k4'
p1910
aS'ZINC30725157'
p1911
aa(lp1912
S'ZINC00895279'
p1913
aS'k1'
p1914
aS'ZINC18168715'
p1915
aS'k2'
p1916
aS'ZINC02562361'
p1917
aS'k4'
p1918
aS'ZINC30725161'
p1919
aa(lp1920
S'ZINC00902225'
p1921
aS'k1'
p1922
aS'ZINC18168715'
p1923
aS'k2'
p1924
aS'ZINC02562361'
p1925
aS'k4'
p1926
aS'ZINC30725161'
p1927
aa(lp1928
S'ZINC00902225'
p1929
aS'k1'
p1930
aS'ZINC18168715'
p1931
aS'k2'
p1932
aS'ZINC02562361'
p1933
aS'k4'
p1934
aS'ZINC30725157'
p1935
aasI694
(lp1936
(lp1937
S'ZINC00895279'
p1938
aS'k1'
p1939
aS'ZINC18168715'
p1940
aS'k2'
p1941
aS'ZINC02562361'
p1942
aS'k4'
p1943
aS'ZINC30725157'
p1944
aa(lp1945
S'ZINC00895279'
p1946
aS'k1'
p1947
aS'ZINC18168715'
p1948
aS'k2'
p1949
aS'ZINC02562361'
p1950
aS'k4'
p1951
aS'ZINC30725161'
p1952
aa(lp1953
S'ZINC00902225'
p1954
aS'k1'
p1955
aS'ZINC18168715'
p1956
aS'k2'
p1957
aS'ZINC02562361'
p1958
aS'k4'
p1959
aS'ZINC30725161'
p1960
aa(lp1961
S'ZINC00902225'
p1962
aS'k1'
p1963
aS'ZINC18168715'
p1964
aS'k2'
p1965
aS'ZINC02562361'
p1966
aS'k4'
p1967
aS'ZINC30725157'
p1968
aasI695
(lp1969
sI696
(lp1970
sI697
(lp1971
sI698
(lp1972
sI699
(lp1973
sI700
(lp1974
sI701
(lp1975
sI702
(lp1976
(lp1977
S'ZINC03606137'
p1978
aS'k3'
p1979
aS'ZINC18168715'
p1980
aS'k2'
p1981
aS'ZINC02562361'
p1982
aS'k4'
p1983
aS'ZINC30725161'
p1984
aa(lp1985
S'ZINC03606137'
p1986
aS'k3'
p1987
aS'ZINC18168715'
p1988
aS'k2'
p1989
aS'ZINC02562361'
p1990
aS'k4'
p1991
aS'ZINC30725157'
p1992
aasI703
(lp1993
sI704
(lp1994
sI705
(lp1995
sI706
(lp1996
sI707
(lp1997
sI708
(lp1998
sI709
(lp1999
sI710
(lp2000
sI711
(lp2001
sI712
(lp2002
sI713
(lp2003
sI714
(lp2004
sI715
(lp2005
sI716
(lp2006
sI717
(lp2007
sI718
(lp2008
sI719
(lp2009
sI720
(lp2010
sI721
(lp2011
sI722
(lp2012
sI723
(lp2013
sI724
(lp2014
sI725
(lp2015
sI726
(lp2016
sI727
(lp2017
sI728
(lp2018
sI729
(lp2019
sI730
(lp2020
sI731
(lp2021
sI732
(lp2022
sI733
(lp2023
sI734
(lp2024
sI735
(lp2025
sI736
(lp2026
(lp2027
S'ZINC03606137'
p2028
aS'k3'
p2029
aS'ZINC18168715'
p2030
aS'k2'
p2031
aS'ZINC02562361'
p2032
aS'k4'
p2033
aS'ZINC30725161'
p2034
aa(lp2035
S'ZINC03606137'
p2036
aS'k3'
p2037
aS'ZINC18168715'
p2038
aS'k2'
p2039
aS'ZINC02562361'
p2040
aS'k4'
p2041
aS'ZINC30725157'
p2042
aasI737
(lp2043
sI738
(lp2044
sI739
(lp2045
sI740
(lp2046
sI741
(lp2047
sI742
(lp2048
sI743
(lp2049
sI744
(lp2050
sI745
(lp2051
sI746
(lp2052
sI747
(lp2053
sI748
(lp2054
sI749
(lp2055
sI750
(lp2056
(lp2057
S'ZINC00902225'
p2058
aS'k1'
p2059
aS'ZINC18168715'
p2060
aS'k2'
p2061
aS'ZINC02562361'
p2062
aS'k4'
p2063
aS'ZINC30725157'
p2064
aa(lp2065
S'ZINC00895279'
p2066
aS'k1'
p2067
aS'ZINC18168715'
p2068
aS'k2'
p2069
aS'ZINC02562361'
p2070
aS'k4'
p2071
aS'ZINC30725157'
p2072
aa(lp2073
S'ZINC00902225'
p2074
aS'k1'
p2075
aS'ZINC18168715'
p2076
aS'k2'
p2077
aS'ZINC02562361'
p2078
aS'k4'
p2079
aS'ZINC30725161'
p2080
aasI751
(lp2081
sI752
(lp2082
sI753
(lp2083
sI754
(lp2084
sI755
(lp2085
sI756
(lp2086
sI757
(lp2087
sI758
(lp2088
sI759
(lp2089
(lp2090
S'ZINC00902225'
p2091
aS'k1'
p2092
aS'ZINC18168715'
p2093
aS'k2'
p2094
aS'ZINC02562361'
p2095
aS'k4'
p2096
aS'ZINC30725161'
p2097
aa(lp2098
S'ZINC00902225'
p2099
aS'k1'
p2100
aS'ZINC18168715'
p2101
aS'k2'
p2102
aS'ZINC02562361'
p2103
aS'k4'
p2104
aS'ZINC30725157'
p2105
aa(lp2106
S'ZINC00895279'
p2107
aS'k1'
p2108
aS'ZINC18168715'
p2109
aS'k2'
p2110
aS'ZINC02562361'
p2111
aS'k4'
p2112
aS'ZINC30725157'
p2113
aa(lp2114
S'ZINC00895279'
p2115
aS'k1'
p2116
aS'ZINC18168715'
p2117
aS'k2'
p2118
aS'ZINC02562361'
p2119
aS'k4'
p2120
aS'ZINC30725161'
p2121
aasI760
(lp2122
(lp2123
S'ZINC01532567'
p2124
aS'k3'
p2125
aS'ZINC00902225'
p2126
aS'k1'
p2127
aS'ZINC18168715'
p2128
aS'k2'
p2129
aS'ZINC02562361'
p2130
aa(lp2131
S'ZINC01532567'
p2132
aS'k3'
p2133
aS'ZINC00902225'
p2134
aS'k1'
p2135
aS'ZINC18168715'
p2136
aS'k2'
p2137
aS'ZINC03870005'
p2138
aasI761
(lp2139
(lp2140
S'ZINC00902225'
p2141
aS'k1'
p2142
aS'ZINC18168715'
p2143
aS'k2'
p2144
aS'ZINC02562361'
p2145
aS'k4'
p2146
aS'ZINC30725161'
p2147
aa(lp2148
S'ZINC00895279'
p2149
aS'k1'
p2150
aS'ZINC18168715'
p2151
aS'k2'
p2152
aS'ZINC02562361'
p2153
aS'k4'
p2154
aS'ZINC30725161'
p2155
aa(lp2156
S'ZINC00902225'
p2157
aS'k1'
p2158
aS'ZINC18168715'
p2159
aS'k2'
p2160
aS'ZINC02562361'
p2161
aS'k4'
p2162
aS'ZINC30725157'
p2163
aa(lp2164
S'ZINC00895279'
p2165
aS'k1'
p2166
aS'ZINC18168715'
p2167
aS'k2'
p2168
aS'ZINC02562361'
p2169
aS'k4'
p2170
aS'ZINC30725157'
p2171
aasI762
(lp2172
sI763
(lp2173
(lp2174
S'ZINC00895279'
p2175
aS'k1'
p2176
aS'ZINC18168715'
p2177
aS'k2'
p2178
aS'ZINC02562361'
p2179
aS'k4'
p2180
aS'ZINC30725157'
p2181
aa(lp2182
S'ZINC00902225'
p2183
aS'k1'
p2184
aS'ZINC18168715'
p2185
aS'k2'
p2186
aS'ZINC02562361'
p2187
aS'k4'
p2188
aS'ZINC30725157'
p2189
aa(lp2190
S'ZINC00902225'
p2191
aS'k1'
p2192
aS'ZINC18168715'
p2193
aS'k2'
p2194
aS'ZINC02562361'
p2195
aS'k4'
p2196
aS'ZINC30725161'
p2197
aa(lp2198
S'ZINC00895279'
p2199
aS'k1'
p2200
aS'ZINC18168715'
p2201
aS'k2'
p2202
aS'ZINC02562361'
p2203
aS'k4'
p2204
aS'ZINC30725161'
p2205
aasI764
(lp2206
sI765
(lp2207
sI766
(lp2208
sI767
(lp2209
sI768
(lp2210
sI769
(lp2211
sI770
(lp2212
(lp2213
S'ZINC00902225'
p2214
aS'k1'
p2215
aS'ZINC18168715'
p2216
aS'k2'
p2217
aS'ZINC02562361'
p2218
aS'k4'
p2219
aS'ZINC30725157'
p2220
aa(lp2221
S'ZINC00895279'
p2222
aS'k1'
p2223
aS'ZINC18168715'
p2224
aS'k2'
p2225
aS'ZINC02562361'
p2226
aS'k4'
p2227
aS'ZINC30725157'
p2228
aa(lp2229
S'ZINC00895279'
p2230
aS'k1'
p2231
aS'ZINC18168715'
p2232
aS'k2'
p2233
aS'ZINC02562361'
p2234
aS'k4'
p2235
aS'ZINC30725161'
p2236
aa(lp2237
S'ZINC00902225'
p2238
aS'k1'
p2239
aS'ZINC18168715'
p2240
aS'k2'
p2241
aS'ZINC02562361'
p2242
aS'k4'
p2243
aS'ZINC30725161'
p2244
aasI771
(lp2245
sI772
(lp2246
sI773
(lp2247
sI774
(lp2248
sI775
(lp2249
sI776
(lp2250
sI777
(lp2251
sI778
(lp2252
sI779
(lp2253
sI780
(lp2254
sI781
(lp2255
sI782
(lp2256
sI783
(lp2257
sI784
(lp2258
sI785
(lp2259
sI786
(lp2260
sI787
(lp2261
sI788
(lp2262
sI789
(lp2263
sI790
(lp2264
sI791
(lp2265
sI792
(lp2266
sI793
(lp2267
sI794
(lp2268
sI795
(lp2269
sI796
(lp2270
sI797
(lp2271
sI798
(lp2272
sI799
(lp2273
sI800
(lp2274
sI801
(lp2275
sI802
(lp2276
sI803
(lp2277
sI804
(lp2278
sI805
(lp2279
sI806
(lp2280
sI807
(lp2281
sI808
(lp2282
sI809
(lp2283
(lp2284
S'ZINC00902225'
p2285
aS'k1'
p2286
aS'ZINC18168715'
p2287
aS'k2'
p2288
aS'ZINC02562361'
p2289
aS'k4'
p2290
aS'ZINC30725157'
p2291
aa(lp2292
S'ZINC00895279'
p2293
aS'k1'
p2294
aS'ZINC18168715'
p2295
aS'k2'
p2296
aS'ZINC02562361'
p2297
aS'k4'
p2298
aS'ZINC30725157'
p2299
aa(lp2300
S'ZINC00895279'
p2301
aS'k1'
p2302
aS'ZINC18168715'
p2303
aS'k2'
p2304
aS'ZINC02562361'
p2305
aS'k4'
p2306
aS'ZINC30725161'
p2307
aa(lp2308
S'ZINC00902225'
p2309
aS'k1'
p2310
aS'ZINC18168715'
p2311
aS'k2'
p2312
aS'ZINC02562361'
p2313
aS'k4'
p2314
aS'ZINC30725161'
p2315
aasI810
(lp2316
sI811
(lp2317
sI812
(lp2318
sI813
(lp2319
sI814
(lp2320
sI815
(lp2321
sI816
(lp2322
sI817
(lp2323
sI818
(lp2324
sI819
(lp2325
sI820
(lp2326
sI821
(lp2327
sI822
(lp2328
sI823
(lp2329
(lp2330
S'ZINC03606137'
p2331
aS'k3'
p2332
aS'ZINC18168715'
p2333
aS'k2'
p2334
aS'ZINC02562361'
p2335
aS'k4'
p2336
aS'ZINC30725157'
p2337
aa(lp2338
S'ZINC03606137'
p2339
aS'k3'
p2340
aS'ZINC18168715'
p2341
aS'k2'
p2342
aS'ZINC02562361'
p2343
aS'k4'
p2344
aS'ZINC30725161'
p2345
aasI824
(lp2346
sI825
(lp2347
sI826
(lp2348
sI827
(lp2349
sI828
(lp2350
sI829
(lp2351
sI830
(lp2352
sI831
(lp2353
sI832
(lp2354
sI833
(lp2355
sI834
(lp2356
sI835
(lp2357
sI836
(lp2358
sI837
(lp2359
sI838
(lp2360
sI839
(lp2361
sI840
(lp2362
sI841
(lp2363
sI842
(lp2364
(lp2365
S'ZINC00902225'
p2366
aS'k1'
p2367
aS'ZINC18168715'
p2368
aS'k2'
p2369
aS'ZINC02562361'
p2370
aS'k4'
p2371
aS'ZINC30725161'
p2372
aa(lp2373
S'ZINC00902225'
p2374
aS'k1'
p2375
aS'ZINC18168715'
p2376
aS'k2'
p2377
aS'ZINC02562361'
p2378
aS'k4'
p2379
aS'ZINC30725157'
p2380
aa(lp2381
S'ZINC00895279'
p2382
aS'k1'
p2383
aS'ZINC18168715'
p2384
aS'k2'
p2385
aS'ZINC02562361'
p2386
aS'k4'
p2387
aS'ZINC30725157'
p2388
aasI843
(lp2389
sI844
(lp2390
sI845
(lp2391
sI846
(lp2392
sI847
(lp2393
sI848
(lp2394
sI849
(lp2395
sI850
(lp2396
sI851
(lp2397
sI852
(lp2398
sI853
(lp2399
sI854
(lp2400
sI855
(lp2401
sI856
(lp2402
sI857
(lp2403
sI858
(lp2404
sI859
(lp2405
sI860
(lp2406
(lp2407
S'ZINC00902225'
p2408
aS'k1'
p2409
aS'ZINC18168715'
p2410
aS'k2'
p2411
aS'ZINC02562361'
p2412
aS'k4'
p2413
aS'ZINC30725157'
p2414
aa(lp2415
S'ZINC00895279'
p2416
aS'k1'
p2417
aS'ZINC18168715'
p2418
aS'k2'
p2419
aS'ZINC02562361'
p2420
aS'k4'
p2421
aS'ZINC30725157'
p2422
aa(lp2423
S'ZINC00895279'
p2424
aS'k1'
p2425
aS'ZINC18168715'
p2426
aS'k2'
p2427
aS'ZINC02562361'
p2428
aS'k4'
p2429
aS'ZINC30725161'
p2430
aa(lp2431
S'ZINC00902225'
p2432
aS'k1'
p2433
aS'ZINC18168715'
p2434
aS'k2'
p2435
aS'ZINC02562361'
p2436
aS'k4'
p2437
aS'ZINC30725161'
p2438
aasI861
(lp2439
sI862
(lp2440
sI863
(lp2441
sI864
(lp2442
sI865
(lp2443
sI866
(lp2444
sI867
(lp2445
sI868
(lp2446
sI869
(lp2447
sI870
(lp2448
sI871
(lp2449
sI872
(lp2450
sI873
(lp2451
sI874
(lp2452
sI875
(lp2453
sI876
(lp2454
sI877
(lp2455
sI878
(lp2456
sI879
(lp2457
sI880
(lp2458
sI881
(lp2459
(lp2460
S'ZINC04658557'
p2461
aS's1'
p2462
aS'ZINC04658554'
p2463
aS'k2'
p2464
aS'ZINC01532865'
p2465
aS's2'
p2466
aS'ZINC00895967'
p2467
aasI882
(lp2468
sI883
(lp2469
sI884
(lp2470
sI885
(lp2471
sI886
(lp2472
sI887
(lp2473
sI888
(lp2474
sI889
(lp2475
sI890
(lp2476
sI891
(lp2477
sI892
(lp2478
sI893
(lp2479
(lp2480
S'ZINC03606137'
p2481
aS'k3'
p2482
aS'ZINC18168715'
p2483
aS'k2'
p2484
aS'ZINC02562361'
p2485
aS'k4'
p2486
aS'ZINC30725161'
p2487
aa(lp2488
S'ZINC03606137'
p2489
aS'k3'
p2490
aS'ZINC18168715'
p2491
aS'k2'
p2492
aS'ZINC02562361'
p2493
aS'k4'
p2494
aS'ZINC30725157'
p2495
aasI894
(lp2496
sI895
(lp2497
sI896
(lp2498
sI897
(lp2499
sI898
(lp2500
sI899
(lp2501
sI900
(lp2502
(lp2503
S'ZINC03606137'
p2504
aS'k3'
p2505
aS'ZINC18168715'
p2506
aS'k2'
p2507
aS'ZINC02562361'
p2508
aS'k4'
p2509
aS'ZINC30725161'
p2510
aa(lp2511
S'ZINC03606137'
p2512
aS'k3'
p2513
aS'ZINC18168715'
p2514
aS'k2'
p2515
aS'ZINC02562361'
p2516
aS'k4'
p2517
aS'ZINC30725157'
p2518
aasI901
(lp2519
sI902
(lp2520
sI903
(lp2521
sI904
(lp2522
sI905
(lp2523
sI906
(lp2524
sI907
(lp2525
sI908
(lp2526
sI909
(lp2527
sI910
(lp2528
sI911
(lp2529
sI912
(lp2530
sI913
(lp2531
sI914
(lp2532
sI915
(lp2533
sI916
(lp2534
sI917
(lp2535
sI918
(lp2536
sI919
(lp2537
sI920
(lp2538
sI921
(lp2539
sI922
(lp2540
sI923
(lp2541
(lp2542
S'ZINC03606137'
p2543
aS'k3'
p2544
aS'ZINC18168715'
p2545
aS'k2'
p2546
aS'ZINC02562361'
p2547
aS'k4'
p2548
aS'ZINC30725161'
p2549
aa(lp2550
S'ZINC03606137'
p2551
aS'k3'
p2552
aS'ZINC18168715'
p2553
aS'k2'
p2554
aS'ZINC02562361'
p2555
aS'k4'
p2556
aS'ZINC30725157'
p2557
aasI924
(lp2558
sI925
(lp2559
sI926
(lp2560
sI927
(lp2561
sI928
(lp2562
sI929
(lp2563
sI930
(lp2564
sI931
(lp2565
sI932
(lp2566
sI933
(lp2567
sI934
(lp2568
sI935
(lp2569
sI936
(lp2570
sI937
(lp2571
sI938
(lp2572
(lp2573
S'ZINC00895279'
p2574
aS'k1'
p2575
aS'ZINC18168715'
p2576
aS'k2'
p2577
aS'ZINC02562361'
p2578
aS'k4'
p2579
aS'ZINC30725157'
p2580
aa(lp2581
S'ZINC00902225'
p2582
aS'k1'
p2583
aS'ZINC18168715'
p2584
aS'k2'
p2585
aS'ZINC02562361'
p2586
aS'k4'
p2587
aS'ZINC30725157'
p2588
aa(lp2589
S'ZINC00902225'
p2590
aS'k1'
p2591
aS'ZINC18168715'
p2592
aS'k2'
p2593
aS'ZINC02562361'
p2594
aS'k4'
p2595
aS'ZINC30725161'
p2596
aa(lp2597
S'ZINC00895279'
p2598
aS'k1'
p2599
aS'ZINC18168715'
p2600
aS'k2'
p2601
aS'ZINC02562361'
p2602
aS'k4'
p2603
aS'ZINC30725161'
p2604
aasI939
(lp2605
sI940
(lp2606
sI941
(lp2607
sI942
(lp2608
sI943
(lp2609
sI944
(lp2610
(lp2611
S'ZINC03606137'
p2612
aS'k3'
p2613
aS'ZINC18168715'
p2614
aS'k2'
p2615
aS'ZINC02562361'
p2616
aS'k4'
p2617
aS'ZINC30725157'
p2618
aa(lp2619
S'ZINC03606137'
p2620
aS'k3'
p2621
aS'ZINC18168715'
p2622
aS'k2'
p2623
aS'ZINC02562361'
p2624
aS'k4'
p2625
aS'ZINC30725161'
p2626
aasI945
(lp2627
sI946
(lp2628
sI947
(lp2629
sI948
(lp2630
sI949
(lp2631
sI950
(lp2632
sI951
(lp2633
sI952
(lp2634
sI953
(lp2635
sI954
(lp2636
sI955
(lp2637
sI956
(lp2638
sI957
(lp2639
sI958
(lp2640
sI959
(lp2641
sI960
(lp2642
sI961
(lp2643
sI962
(lp2644
sI963
(lp2645
sI964
(lp2646
sI965
(lp2647
sI966
(lp2648
sI967
(lp2649
sI968
(lp2650
sI969
(lp2651
sI970
(lp2652
sI971
(lp2653
sI972
(lp2654
sI973
(lp2655
sI974
(lp2656
sI975
(lp2657
sI976
(lp2658
sI977
(lp2659
sI978
(lp2660
sI979
(lp2661
(lp2662
S'ZINC03606137'
p2663
aS'k3'
p2664
aS'ZINC18168715'
p2665
aS'k2'
p2666
aS'ZINC02562361'
p2667
aS'k4'
p2668
aS'ZINC30725157'
p2669
aa(lp2670
S'ZINC03606137'
p2671
aS'k3'
p2672
aS'ZINC18168715'
p2673
aS'k2'
p2674
aS'ZINC02562361'
p2675
aS'k4'
p2676
aS'ZINC30725161'
p2677
aasI980
(lp2678
sI981
(lp2679
sI982
(lp2680
sI983
(lp2681
sI984
(lp2682
sI985
(lp2683
sI986
(lp2684
sI987
(lp2685
sI988
(lp2686
sI989
(lp2687
(lp2688
S'ZINC00902225'
p2689
aS'k1'
p2690
aS'ZINC18168715'
p2691
aS'k2'
p2692
aS'ZINC02562361'
p2693
aS'k4'
p2694
aS'ZINC30725157'
p2695
aa(lp2696
S'ZINC00895279'
p2697
aS'k1'
p2698
aS'ZINC18168715'
p2699
aS'k2'
p2700
aS'ZINC02562361'
p2701
aS'k4'
p2702
aS'ZINC30725157'
p2703
aa(lp2704
S'ZINC00902225'
p2705
aS'k1'
p2706
aS'ZINC18168715'
p2707
aS'k2'
p2708
aS'ZINC02562361'
p2709
aS'k4'
p2710
aS'ZINC30725161'
p2711
aa(lp2712
S'ZINC00895279'
p2713
aS'k1'
p2714
aS'ZINC18168715'
p2715
aS'k2'
p2716
aS'ZINC02562361'
p2717
aS'k4'
p2718
aS'ZINC30725161'
p2719
aasI990
(lp2720
sI991
(lp2721
sI992
(lp2722
sI993
(lp2723
sI994
(lp2724
sI995
(lp2725
sI996
(lp2726
sI997
(lp2727
sI998
(lp2728
sI999
(lp2729
sI1000
(lp2730
sI1001
(lp2731
sI1002
(lp2732
sI1003
(lp2733
sI1004
(lp2734
sI1005
(lp2735
sI1006
(lp2736
sI1007
(lp2737
sI1008
(lp2738
sI1009
(lp2739
sI1010
(lp2740
sI1011
(lp2741
sI1012
(lp2742
sI1013
(lp2743
sI1014
(lp2744
sI1015
(lp2745
sI1016
(lp2746
sI1017
(lp2747
sI1018
(lp2748
sI1019
(lp2749
sI1020
(lp2750
sI1021
(lp2751
sI1022
(lp2752
sI1023
(lp2753
sI1024
(lp2754
sI1025
(lp2755
sI1026
(lp2756
sI1027
(lp2757
sI1028
(lp2758
sI1029
(lp2759
sI1030
(lp2760
sI1031
(lp2761
sI1032
(lp2762
sI1033
(lp2763
sI1034
(lp2764
sI1035
(lp2765
sI1036
(lp2766
sI1037
(lp2767
sI1038
(lp2768
sI1039
(lp2769
sI1040
(lp2770
sI1041
(lp2771
sI1042
(lp2772
sI1043
(lp2773
sI1044
(lp2774
sI1045
(lp2775
sI1046
(lp2776
sI1047
(lp2777
sI1048
(lp2778
sI1049
(lp2779
sI1050
(lp2780
sI1051
(lp2781
sI1052
(lp2782
sI1053
(lp2783
sI1054
(lp2784
sI1055
(lp2785
sI1056
(lp2786
sI1057
(lp2787
sI1058
(lp2788
sI1059
(lp2789
sI1060
(lp2790
sI1061
(lp2791
sI1062
(lp2792
sI1063
(lp2793
sI1064
(lp2794
sI1065
(lp2795
sI1066
(lp2796
sI1067
(lp2797
sI1068
(lp2798
sI1069
(lp2799
sI1070
(lp2800
sI1071
(lp2801
sI1072
(lp2802
sI1073
(lp2803
(lp2804
S'ZINC03606137'
p2805
aS'k3'
p2806
aS'ZINC18168715'
p2807
aS'k2'
p2808
aS'ZINC02562361'
p2809
aS'k4'
p2810
aS'ZINC30725161'
p2811
aa(lp2812
S'ZINC03606137'
p2813
aS'k3'
p2814
aS'ZINC18168715'
p2815
aS'k2'
p2816
aS'ZINC02562361'
p2817
aS'k4'
p2818
aS'ZINC30725157'
p2819
aasI1074
(lp2820
sI1075
(lp2821
sI1076
(lp2822
sI1077
(lp2823
sI1078
(lp2824
sI1079
(lp2825
(lp2826
S'ZINC00902225'
p2827
aS'k1'
p2828
aS'ZINC18168715'
p2829
aS'k2'
p2830
aS'ZINC02562361'
p2831
aS'k4'
p2832
aS'ZINC30725157'
p2833
aasI1080
(lp2834
sI1081
(lp2835
(lp2836
S'ZINC00902225'
p2837
aS'k1'
p2838
aS'ZINC18168715'
p2839
aS'k2'
p2840
aS'ZINC02562361'
p2841
aS'k4'
p2842
aS'ZINC30725157'
p2843
aa(lp2844
S'ZINC00895279'
p2845
aS'k1'
p2846
aS'ZINC18168715'
p2847
aS'k2'
p2848
aS'ZINC02562361'
p2849
aS'k4'
p2850
aS'ZINC30725157'
p2851
aa(lp2852
S'ZINC00902225'
p2853
aS'k1'
p2854
aS'ZINC18168715'
p2855
aS'k2'
p2856
aS'ZINC02562361'
p2857
aS'k4'
p2858
aS'ZINC30725161'
p2859
aa(lp2860
S'ZINC00895279'
p2861
aS'k1'
p2862
aS'ZINC18168715'
p2863
aS'k2'
p2864
aS'ZINC02562361'
p2865
aS'k4'
p2866
aS'ZINC30725161'
p2867
aasI1082
(lp2868
sI1083
(lp2869
sI1084
(lp2870
sI1085
(lp2871
sI1086
(lp2872
sI1087
(lp2873
sI1088
(lp2874
sI1089
(lp2875
sI1090
(lp2876
sI1091
(lp2877
sI1092
(lp2878
sI1093
(lp2879
sI1094
(lp2880
sI1095
(lp2881
sI1096
(lp2882
sI1097
(lp2883
sI1098
(lp2884
sI1099
(lp2885
(lp2886
S'ZINC00902225'
p2887
aS'k1'
p2888
aS'ZINC18168715'
p2889
aS'k2'
p2890
aS'ZINC02562361'
p2891
aS'k4'
p2892
aS'ZINC30725157'
p2893
aa(lp2894
S'ZINC00902225'
p2895
aS'k1'
p2896
aS'ZINC18168715'
p2897
aS'k2'
p2898
aS'ZINC02562361'
p2899
aS'k4'
p2900
aS'ZINC30725161'
p2901
aa(lp2902
S'ZINC00895279'
p2903
aS'k1'
p2904
aS'ZINC18168715'
p2905
aS'k2'
p2906
aS'ZINC02562361'
p2907
aS'k4'
p2908
aS'ZINC30725161'
p2909
aa(lp2910
S'ZINC00895279'
p2911
aS'k1'
p2912
aS'ZINC18168715'
p2913
aS'k2'
p2914
aS'ZINC02562361'
p2915
aS'k4'
p2916
aS'ZINC30725157'
p2917
aasI1100
(lp2918
sI1101
(lp2919
sI1102
(lp2920
sI1103
(lp2921
sI1104
(lp2922
sI1105
(lp2923
sI1106
(lp2924
sI1107
(lp2925
sI1108
(lp2926
sI1109
(lp2927
sI1110
(lp2928
sI1111
(lp2929
sI1112
(lp2930
sI1113
(lp2931
sI1114
(lp2932
sI1115
(lp2933
sI1116
(lp2934
sI1117
(lp2935
sI1118
(lp2936
sI1119
(lp2937
sI1120
(lp2938
sI1121
(lp2939
sI1122
(lp2940
sI1123
(lp2941
sI1124
(lp2942
sI1125
(lp2943
sI1126
(lp2944
sI1127
(lp2945
sI1128
(lp2946
sI1129
(lp2947
sI1130
(lp2948
sI1131
(lp2949
sI1132
(lp2950
sI1133
(lp2951
sI1134
(lp2952
sI1135
(lp2953
sI1136
(lp2954
sI1137
(lp2955
sI1138
(lp2956
sI1139
(lp2957
sI1140
(lp2958
(lp2959
S'ZINC00902225'
p2960
aS'k1'
p2961
aS'ZINC18168715'
p2962
aS'k2'
p2963
aS'ZINC02562361'
p2964
aS'k4'
p2965
aS'ZINC30725161'
p2966
aa(lp2967
S'ZINC00895279'
p2968
aS'k1'
p2969
aS'ZINC18168715'
p2970
aS'k2'
p2971
aS'ZINC02562361'
p2972
aS'k4'
p2973
aS'ZINC30725161'
p2974
aa(lp2975
S'ZINC00902225'
p2976
aS'k1'
p2977
aS'ZINC18168715'
p2978
aS'k2'
p2979
aS'ZINC02562361'
p2980
aS'k4'
p2981
aS'ZINC30725157'
p2982
aa(lp2983
S'ZINC00895279'
p2984
aS'k1'
p2985
aS'ZINC18168715'
p2986
aS'k2'
p2987
aS'ZINC02562361'
p2988
aS'k4'
p2989
aS'ZINC30725157'
p2990
aasI1141
(lp2991
sI1142
(lp2992
sI1143
(lp2993
sI1144
(lp2994
sI1145
(lp2995
sI1146
(lp2996
sI1147
(lp2997
sI1148
(lp2998
sI1149
(lp2999
sI1150
(lp3000
sI1151
(lp3001
sI1152
(lp3002
sI1153
(lp3003
sI1154
(lp3004
sI1155
(lp3005
sI1156
(lp3006
sI1157
(lp3007
sI1158
(lp3008
sI1159
(lp3009
sI1160
(lp3010
sI1161
(lp3011
sI1162
(lp3012
sI1163
(lp3013
sI1164
(lp3014
sI1165
(lp3015
sI1166
(lp3016
sI1167
(lp3017
sI1168
(lp3018
sI1169
(lp3019
sI1170
(lp3020
sI1171
(lp3021
sI1172
(lp3022
sI1173
(lp3023
sI1174
(lp3024
sI1175
(lp3025
sI1176
(lp3026
sI1177
(lp3027
sI1178
(lp3028
sI1179
(lp3029
sI1180
(lp3030
sI1181
(lp3031
sI1182
(lp3032
sI1183
(lp3033
sI1184
(lp3034
sI1185
(lp3035
sI1186
(lp3036
sI1187
(lp3037
sI1188
(lp3038
sI1189
(lp3039
sI1190
(lp3040
sI1191
(lp3041
sI1192
(lp3042
sI1193
(lp3043
sI1194
(lp3044
sI1195
(lp3045
sI1196
(lp3046
sI1197
(lp3047
sI1198
(lp3048
sI1199
(lp3049
sI1200
(lp3050
sI1201
(lp3051
sI1202
(lp3052
sI1203
(lp3053
sI1204
(lp3054
sI1205
(lp3055
sI1206
(lp3056
sI1207
(lp3057
sI1208
(lp3058
sI1209
(lp3059
sI1210
(lp3060
sI1211
(lp3061
sI1212
(lp3062
sI1213
(lp3063
sI1214
(lp3064
sI1215
(lp3065
sI1216
(lp3066
sI1217
(lp3067
sI1218
(lp3068
sI1219
(lp3069
sI1220
(lp3070
sI1221
(lp3071
sI1222
(lp3072
sI1223
(lp3073
sI1224
(lp3074
sI1225
(lp3075
sI1226
(lp3076
sI1227
(lp3077
sI1228
(lp3078
sI1229
(lp3079
sI1230
(lp3080
sI1231
(lp3081
(lp3082
S'ZINC00895279'
p3083
aS'k1'
p3084
aS'ZINC18168715'
p3085
aS'k2'
p3086
aS'ZINC02562361'
p3087
aS'k4'
p3088
aS'ZINC30725161'
p3089
aa(lp3090
S'ZINC00902225'
p3091
aS'k1'
p3092
aS'ZINC18168715'
p3093
aS'k2'
p3094
aS'ZINC02562361'
p3095
aS'k4'
p3096
aS'ZINC30725161'
p3097
aa(lp3098
S'ZINC00902225'
p3099
aS'k1'
p3100
aS'ZINC18168715'
p3101
aS'k2'
p3102
aS'ZINC02562361'
p3103
aS'k4'
p3104
aS'ZINC30725157'
p3105
aa(lp3106
S'ZINC00895279'
p3107
aS'k1'
p3108
aS'ZINC18168715'
p3109
aS'k2'
p3110
aS'ZINC02562361'
p3111
aS'k4'
p3112
aS'ZINC30725157'
p3113
aasI1232
(lp3114
sI1233
(lp3115
sI1234
(lp3116
sI1235
(lp3117
sI1236
(lp3118
sI1237
(lp3119
sI1238
(lp3120
sI1239
(lp3121
sI1240
(lp3122
sI1241
(lp3123
sI1242
(lp3124
(lp3125
S'ZINC00895279'
p3126
aS'k1'
p3127
aS'ZINC18168715'
p3128
aS'k2'
p3129
aS'ZINC02562361'
p3130
aS'k4'
p3131
aS'ZINC30725161'
p3132
aa(lp3133
S'ZINC00895279'
p3134
aS'k1'
p3135
aS'ZINC18168715'
p3136
aS'k2'
p3137
aS'ZINC02562361'
p3138
aS'k4'
p3139
aS'ZINC30725157'
p3140
aa(lp3141
S'ZINC00902225'
p3142
aS'k1'
p3143
aS'ZINC18168715'
p3144
aS'k2'
p3145
aS'ZINC02562361'
p3146
aS'k4'
p3147
aS'ZINC30725157'
p3148
aa(lp3149
S'ZINC00902225'
p3150
aS'k1'
p3151
aS'ZINC18168715'
p3152
aS'k2'
p3153
aS'ZINC02562361'
p3154
aS'k4'
p3155
aS'ZINC30725161'
p3156
aasI1243
(lp3157
(lp3158
S'ZINC00902225'
p3159
aS'k1'
p3160
aS'ZINC18168715'
p3161
aS'k2'
p3162
aS'ZINC02562361'
p3163
aS'k4'
p3164
aS'ZINC30725161'
p3165
aa(lp3166
S'ZINC00902225'
p3167
aS'k1'
p3168
aS'ZINC18168715'
p3169
aS'k2'
p3170
aS'ZINC02562361'
p3171
aS'k4'
p3172
aS'ZINC30725157'
p3173
aa(lp3174
S'ZINC00895279'
p3175
aS'k1'
p3176
aS'ZINC18168715'
p3177
aS'k2'
p3178
aS'ZINC02562361'
p3179
aS'k4'
p3180
aS'ZINC30725157'
p3181
aa(lp3182
S'ZINC00895279'
p3183
aS'k1'
p3184
aS'ZINC18168715'
p3185
aS'k2'
p3186
aS'ZINC02562361'
p3187
aS'k4'
p3188
aS'ZINC30725161'
p3189
aasI1244
(lp3190
sI1245
(lp3191
sI1246
(lp3192
sI1247
(lp3193
sI1248
(lp3194
sI1249
(lp3195
sI1250
(lp3196
sI1251
(lp3197
(lp3198
S'ZINC03606137'
p3199
aS'k3'
p3200
aS'ZINC18168715'
p3201
aS'k2'
p3202
aS'ZINC02562361'
p3203
aS'k4'
p3204
aS'ZINC30725161'
p3205
aa(lp3206
S'ZINC03606137'
p3207
aS'k3'
p3208
aS'ZINC18168715'
p3209
aS'k2'
p3210
aS'ZINC02562361'
p3211
aS'k4'
p3212
aS'ZINC30725157'
p3213
aasI1252
(lp3214
sI1253
(lp3215
sI1254
(lp3216
sI1255
(lp3217
sI1256
(lp3218
sI1257
(lp3219
sI1258
(lp3220
sI1259
(lp3221
sI1260
(lp3222
sI1261
(lp3223
sI1262
(lp3224
sI1263
(lp3225
sI1264
(lp3226
sI1265
(lp3227
sI1266
(lp3228
sI1267
(lp3229
sI1268
(lp3230
(lp3231
S'ZINC03606137'
p3232
aS'k3'
p3233
aS'ZINC18168715'
p3234
aS'k2'
p3235
aS'ZINC02562361'
p3236
aS'k4'
p3237
aS'ZINC30725161'
p3238
aa(lp3239
S'ZINC03606137'
p3240
aS'k3'
p3241
aS'ZINC18168715'
p3242
aS'k2'
p3243
aS'ZINC02562361'
p3244
aS'k4'
p3245
aS'ZINC30725157'
p3246
aasI1269
(lp3247
sI1270
(lp3248
sI1271
(lp3249
sI1272
(lp3250
sI1273
(lp3251
sI1274
(lp3252
sI1275
(lp3253
sI1276
(lp3254
sI1277
(lp3255
sI1278
(lp3256
sI1279
(lp3257
sI1280
(lp3258
sI1281
(lp3259
sI1282
(lp3260
sI1283
(lp3261
sI1284
(lp3262
sI1285
(lp3263
sI1286
(lp3264
sI1287
(lp3265
sI1288
(lp3266
sI1289
(lp3267
sI1290
(lp3268
sI1291
(lp3269
sI1292
(lp3270
(lp3271
S'ZINC03606137'
p3272
aS'k3'
p3273
aS'ZINC18168715'
p3274
aS'k2'
p3275
aS'ZINC02562361'
p3276
aS'k4'
p3277
aS'ZINC30725157'
p3278
aa(lp3279
S'ZINC03606137'
p3280
aS'k3'
p3281
aS'ZINC18168715'
p3282
aS'k2'
p3283
aS'ZINC02562361'
p3284
aS'k4'
p3285
aS'ZINC30725161'
p3286
aasI1293
(lp3287
sI1294
(lp3288
sI1295
(lp3289
sI1296
(lp3290
sI1297
(lp3291
sI1298
(lp3292
sI1299
(lp3293
sI1300
(lp3294
sI1301
(lp3295
sI1302
(lp3296
sI1303
(lp3297
sI1304
(lp3298
sI1305
(lp3299
sI1306
(lp3300
sI1307
(lp3301
sI1308
(lp3302
sI1309
(lp3303
sI1310
(lp3304
sI1311
(lp3305
sI1312
(lp3306
sI1313
(lp3307
sI1314
(lp3308
sI1315
(lp3309
sI1316
(lp3310
sI1317
(lp3311
(lp3312
S'ZINC04658557'
p3313
aS's1'
p3314
aS'ZINC04658554'
p3315
aS'k2'
p3316
aS'ZINC01532865'
p3317
aS's2'
p3318
aS'ZINC00895967'
p3319
aasI1318
(lp3320
sI1319
(lp3321
sI1320
(lp3322
sI1321
(lp3323
sI1322
(lp3324
sI1323
(lp3325
sI1324
(lp3326
sI1325
(lp3327
(lp3328
S'ZINC03606137'
p3329
aS'k3'
p3330
aS'ZINC18168715'
p3331
aS'k2'
p3332
aS'ZINC02562361'
p3333
aS'k4'
p3334
aS'ZINC30725161'
p3335
aa(lp3336
S'ZINC03606137'
p3337
aS'k3'
p3338
aS'ZINC18168715'
p3339
aS'k2'
p3340
aS'ZINC02562361'
p3341
aS'k4'
p3342
aS'ZINC30725157'
p3343
aasI1326
(lp3344
sI1327
(lp3345
sI1328
(lp3346
sI1329
(lp3347
sI1330
(lp3348
sI1331
(lp3349
sI1332
(lp3350
sI1333
(lp3351
sI1334
(lp3352
sI1335
(lp3353
sI1336
(lp3354
sI1337
(lp3355
sI1338
(lp3356
sI1339
(lp3357
sI1340
(lp3358
(lp3359
S'ZINC00895279'
p3360
aS'k1'
p3361
aS'ZINC18168715'
p3362
aS'k2'
p3363
aS'ZINC02562361'
p3364
aS'k4'
p3365
aS'ZINC30725157'
p3366
aa(lp3367
S'ZINC00895279'
p3368
aS'k1'
p3369
aS'ZINC18168715'
p3370
aS'k2'
p3371
aS'ZINC02562361'
p3372
aS'k4'
p3373
aS'ZINC30725161'
p3374
aa(lp3375
S'ZINC00902225'
p3376
aS'k1'
p3377
aS'ZINC18168715'
p3378
aS'k2'
p3379
aS'ZINC02562361'
p3380
aS'k4'
p3381
aS'ZINC30725161'
p3382
aa(lp3383
S'ZINC00902225'
p3384
aS'k1'
p3385
aS'ZINC18168715'
p3386
aS'k2'
p3387
aS'ZINC02562361'
p3388
aS'k4'
p3389
aS'ZINC30725157'
p3390
aasI1341
(lp3391
(lp3392
S'ZINC00902225'
p3393
aS'k1'
p3394
aS'ZINC18168715'
p3395
aS'k2'
p3396
aS'ZINC02562361'
p3397
aS'k4'
p3398
aS'ZINC30725161'
p3399
aa(lp3400
S'ZINC00895279'
p3401
aS'k1'
p3402
aS'ZINC18168715'
p3403
aS'k2'
p3404
aS'ZINC02562361'
p3405
aS'k4'
p3406
aS'ZINC30725161'
p3407
aa(lp3408
S'ZINC00895279'
p3409
aS'k1'
p3410
aS'ZINC18168715'
p3411
aS'k2'
p3412
aS'ZINC02562361'
p3413
aS'k4'
p3414
aS'ZINC30725157'
p3415
aa(lp3416
S'ZINC00902225'
p3417
aS'k1'
p3418
aS'ZINC18168715'
p3419
aS'k2'
p3420
aS'ZINC02562361'
p3421
aS'k4'
p3422
aS'ZINC30725157'
p3423
aasI1342
(lp3424
sI1343
(lp3425
sI1344
(lp3426
sI1345
(lp3427
sI1346
(lp3428
sI1347
(lp3429
sI1348
(lp3430
sI1349
(lp3431
sI1350
(lp3432
sI1351
(lp3433
sI1352
(lp3434
sI1353
(lp3435
sI1354
(lp3436
sI1355
(lp3437
sI1356
(lp3438
sI1357
(lp3439
sI1358
(lp3440
sI1359
(lp3441
sI1360
(lp3442
sI1361
(lp3443
sI1362
(lp3444
sI1363
(lp3445
sI1364
(lp3446
sI1365
(lp3447
sI1366
(lp3448
sI1367
(lp3449
sI1368
(lp3450
sI1369
(lp3451
sI1370
(lp3452
sI1371
(lp3453
sI1372
(lp3454
sI1373
(lp3455
sI1374
(lp3456
sI1375
(lp3457
sI1376
(lp3458
sI1377
(lp3459
sI1378
(lp3460
sI1379
(lp3461
sI1380
(lp3462
sI1381
(lp3463
sI1382
(lp3464
sI1383
(lp3465
sI1384
(lp3466
sI1385
(lp3467
sI1386
(lp3468
sI1387
(lp3469
sI1388
(lp3470
sI1389
(lp3471
sI1390
(lp3472
sI1391
(lp3473
sI1392
(lp3474
sI1393
(lp3475
sI1394
(lp3476
sI1395
(lp3477
sI1396
(lp3478
sI1397
(lp3479
sI1398
(lp3480
sI1399
(lp3481
sI1400
(lp3482
sI1401
(lp3483
sI1402
(lp3484
sI1403
(lp3485
sI1404
(lp3486
sI1405
(lp3487
sI1406
(lp3488
(lp3489
S'ZINC03606137'
p3490
aS'k3'
p3491
aS'ZINC18168715'
p3492
aS'k2'
p3493
aS'ZINC02562361'
p3494
aS'k4'
p3495
aS'ZINC30725157'
p3496
aa(lp3497
S'ZINC03606137'
p3498
aS'k3'
p3499
aS'ZINC18168715'
p3500
aS'k2'
p3501
aS'ZINC02562361'
p3502
aS'k4'
p3503
aS'ZINC30725161'
p3504
aasI1407
(lp3505
sI1408
(lp3506
sI1409
(lp3507
sI1410
(lp3508
sI1411
(lp3509
sI1412
(lp3510
sI1413
(lp3511
sI1414
(lp3512
sI1415
(lp3513
sI1416
(lp3514
sI1417
(lp3515
(lp3516
S'ZINC03606137'
p3517
aS'k3'
p3518
aS'ZINC18168715'
p3519
aS'k2'
p3520
aS'ZINC02562361'
p3521
aS'k4'
p3522
aS'ZINC30725161'
p3523
aa(lp3524
S'ZINC03606137'
p3525
aS'k3'
p3526
aS'ZINC18168715'
p3527
aS'k2'
p3528
aS'ZINC02562361'
p3529
aS'k4'
p3530
aS'ZINC30725157'
p3531
aasI1418
(lp3532
sI1419
(lp3533
sI1420
(lp3534
sI1421
(lp3535
sI1422
(lp3536
sI1423
(lp3537
sI1424
(lp3538
sI1425
(lp3539
sI1426
(lp3540
sI1427
(lp3541
sI1428
(lp3542
sI1429
(lp3543
sI1430
(lp3544
sI1431
(lp3545
sI1432
(lp3546
sI1433
(lp3547
(lp3548
S'ZINC04658557'
p3549
aS's1'
p3550
aS'ZINC04658554'
p3551
aS'k2'
p3552
aS'ZINC01532865'
p3553
aS's2'
p3554
aS'ZINC00895967'
p3555
aasI1434
(lp3556
sI1435
(lp3557
sI1436
(lp3558
sI1437
(lp3559
sI1438
(lp3560
sI1439
(lp3561
sI1440
(lp3562
sI1441
(lp3563
sI1442
(lp3564
sI1443
(lp3565
sI1444
(lp3566
sI1445
(lp3567
sI1446
(lp3568
sI1447
(lp3569
sI1448
(lp3570
sI1449
(lp3571
sI1450
(lp3572
sI1451
(lp3573
sI1452
(lp3574
sI1453
(lp3575
sI1454
(lp3576
sI1455
(lp3577
sI1456
(lp3578
(lp3579
S'ZINC03606137'
p3580
aS'k2'
p3581
aS'ZINC03870009'
p3582
aS'k3'
p3583
aS'ZINC02562361'
p3584
aS'k4'
p3585
aS'ZINC30725157'
p3586
aa(lp3587
S'ZINC03606137'
p3588
aS'k2'
p3589
aS'ZINC03870009'
p3590
aS'k3'
p3591
aS'ZINC02562361'
p3592
aS'k4'
p3593
aS'ZINC30725161'
p3594
aasI1457
(lp3595
sI1458
(lp3596
sI1459
(lp3597
sI1460
(lp3598
sI1461
(lp3599
sI1462
(lp3600
sI1463
(lp3601
sI1464
(lp3602
sI1465
(lp3603
sI1466
(lp3604
sI1467
(lp3605
sI1468
(lp3606
sI1469
(lp3607
sI1470
(lp3608
sI1471
(lp3609
sI1472
(lp3610
sI1473
(lp3611
sI1474
(lp3612
sI1475
(lp3613
sI1476
(lp3614
sI1477
(lp3615
sI1478
(lp3616
sI1479
(lp3617
sI1480
(lp3618
sI1481
(lp3619
sI1482
(lp3620
sI1483
(lp3621
sI1484
(lp3622
sI1485
(lp3623
sI1486
(lp3624
sI1487
(lp3625
sI1488
(lp3626
sI1489
(lp3627
sI1490
(lp3628
sI1491
(lp3629
sI1492
(lp3630
sI1493
(lp3631
sI1494
(lp3632
sI1495
(lp3633
sI1496
(lp3634
sI1497
(lp3635
sI1498
(lp3636
sI1499
(lp3637
sI1500
(lp3638
sI1501
(lp3639
sI1502
(lp3640
sI1503
(lp3641
sI1504
(lp3642
sI1505
(lp3643
sI1506
(lp3644
sI1507
(lp3645
sI1508
(lp3646
sI1509
(lp3647
sI1510
(lp3648
sI1511
(lp3649
sI1512
(lp3650
sI1513
(lp3651
sI1514
(lp3652
sI1515
(lp3653
sI1516
(lp3654
(lp3655
S'ZINC03606137'
p3656
aS'k3'
p3657
aS'ZINC18168715'
p3658
aS'k2'
p3659
aS'ZINC02562361'
p3660
aS'k4'
p3661
aS'ZINC30725161'
p3662
aa(lp3663
S'ZINC03606137'
p3664
aS'k3'
p3665
aS'ZINC18168715'
p3666
aS'k2'
p3667
aS'ZINC02562361'
p3668
aS'k4'
p3669
aS'ZINC30725157'
p3670
aasI1517
(lp3671
sI1518
(lp3672
sI1519
(lp3673
sI1520
(lp3674
sI1521
(lp3675
sI1522
(lp3676
sI1523
(lp3677
sI1524
(lp3678
(lp3679
S'ZINC03606137'
p3680
aS'k3'
p3681
aS'ZINC18168715'
p3682
aS'k2'
p3683
aS'ZINC02562361'
p3684
aS'k4'
p3685
aS'ZINC30725157'
p3686
aa(lp3687
S'ZINC03606137'
p3688
aS'k3'
p3689
aS'ZINC18168715'
p3690
aS'k2'
p3691
aS'ZINC02562361'
p3692
aS'k4'
p3693
aS'ZINC30725161'
p3694
aasI1525
(lp3695
sI1526
(lp3696
sI1527
(lp3697
sI1528
(lp3698
sI1529
(lp3699
sI1530
(lp3700
sI1531
(lp3701
sI1532
(lp3702
sI1533
(lp3703
sI1534
(lp3704
sI1535
(lp3705
sI1536
(lp3706
sI1537
(lp3707
sI1538
(lp3708
sI1539
(lp3709
sI1540
(lp3710
sI1541
(lp3711
sI1542
(lp3712
sI1543
(lp3713
sI1544
(lp3714
sI1545
(lp3715
sI1546
(lp3716
sI1547
(lp3717
sI1548
(lp3718
sI1549
(lp3719
sI1550
(lp3720
sI1551
(lp3721
sI1552
(lp3722
sI1553
(lp3723
sI1554
(lp3724
sI1555
(lp3725
sI1556
(lp3726
sI1557
(lp3727
sI1558
(lp3728
(lp3729
S'ZINC03606137'
p3730
aS'k3'
p3731
aS'ZINC18168715'
p3732
aS'k2'
p3733
aS'ZINC02562361'
p3734
aS'k4'
p3735
aS'ZINC30725161'
p3736
aa(lp3737
S'ZINC03606137'
p3738
aS'k3'
p3739
aS'ZINC18168715'
p3740
aS'k2'
p3741
aS'ZINC02562361'
p3742
aS'k4'
p3743
aS'ZINC30725157'
p3744
aasI1559
(lp3745
sI1560
(lp3746
sI1561
(lp3747
sI1562
(lp3748
sI1563
(lp3749
sI1564
(lp3750
sI1565
(lp3751
sI1566
(lp3752
sI1567
(lp3753
sI1568
(lp3754
(lp3755
S'ZINC04658557'
p3756
aS's1'
p3757
aS'ZINC04658554'
p3758
aS'k2'
p3759
aS'ZINC01532864'
p3760
aS's2'
p3761
aS'ZINC00901639'
p3762
aasI1569
(lp3763
sI1570
(lp3764
sI1571
(lp3765
sI1572
(lp3766
sI1573
(lp3767
sI1574
(lp3768
sI1575
(lp3769
sI1576
(lp3770
(lp3771
S'ZINC00902225'
p3772
aS'k1'
p3773
aS'ZINC18168715'
p3774
aS'k2'
p3775
aS'ZINC02562361'
p3776
aS'k4'
p3777
aS'ZINC30725157'
p3778
aa(lp3779
S'ZINC00902225'
p3780
aS'k1'
p3781
aS'ZINC18168715'
p3782
aS'k2'
p3783
aS'ZINC02562361'
p3784
aS'k4'
p3785
aS'ZINC30725161'
p3786
aa(lp3787
S'ZINC00895279'
p3788
aS'k1'
p3789
aS'ZINC18168715'
p3790
aS'k2'
p3791
aS'ZINC02562361'
p3792
aS'k4'
p3793
aS'ZINC30725157'
p3794
aa(lp3795
S'ZINC00895279'
p3796
aS'k1'
p3797
aS'ZINC18168715'
p3798
aS'k2'
p3799
aS'ZINC02562361'
p3800
aS'k4'
p3801
aS'ZINC30725161'
p3802
aasI1577
(lp3803
sI1578
(lp3804
sI1579
(lp3805
sI1580
(lp3806
sI1581
(lp3807
sI1582
(lp3808
sI1583
(lp3809
sI1584
(lp3810
sI1585
(lp3811
sI1586
(lp3812
sI1587
(lp3813
sI1588
(lp3814
sI1589
(lp3815
sI1590
(lp3816
sI1591
(lp3817
sI1592
(lp3818
sI1593
(lp3819
sI1594
(lp3820
sI1595
(lp3821
sI1596
(lp3822
sI1597
(lp3823
sI1598
(lp3824
(lp3825
S'ZINC03606137'
p3826
aS'k3'
p3827
aS'ZINC18168715'
p3828
aS'k2'
p3829
aS'ZINC02562361'
p3830
aS'k4'
p3831
aS'ZINC30725161'
p3832
aa(lp3833
S'ZINC03606137'
p3834
aS'k3'
p3835
aS'ZINC18168715'
p3836
aS'k2'
p3837
aS'ZINC02562361'
p3838
aS'k4'
p3839
aS'ZINC30725157'
p3840
aasI1599
(lp3841
sI1600
(lp3842
sI1601
(lp3843
sI1602
(lp3844
sI1603
(lp3845
sI1604
(lp3846
sI1605
(lp3847
sI1606
(lp3848
sI1607
(lp3849
sI1608
(lp3850
sI1609
(lp3851
sI1610
(lp3852
sI1611
(lp3853
sI1612
(lp3854
sI1613
(lp3855
sI1614
(lp3856
sI1615
(lp3857
sI1616
(lp3858
sI1617
(lp3859
sI1618
(lp3860
sI1619
(lp3861
sI1620
(lp3862
sI1621
(lp3863
sI1622
(lp3864
sI1623
(lp3865
(lp3866
S'ZINC03606137'
p3867
aS'k3'
p3868
aS'ZINC18168715'
p3869
aS'k2'
p3870
aS'ZINC02562361'
p3871
aS'k4'
p3872
aS'ZINC30725161'
p3873
aa(lp3874
S'ZINC03606137'
p3875
aS'k3'
p3876
aS'ZINC18168715'
p3877
aS'k2'
p3878
aS'ZINC02562361'
p3879
aS'k4'
p3880
aS'ZINC30725157'
p3881
aasI1624
(lp3882
sI1625
(lp3883
sI1626
(lp3884
sI1627
(lp3885
sI1628
(lp3886
sI1629
(lp3887
sI1630
(lp3888
sI1631
(lp3889
sI1632
(lp3890
sI1633
(lp3891
sI1634
(lp3892
sI1635
(lp3893
sI1636
(lp3894
sI1637
(lp3895
sI1638
(lp3896
sI1639
(lp3897
(lp3898
S'ZINC00895279'
p3899
aS'k1'
p3900
aS'ZINC18168715'
p3901
aS'k2'
p3902
aS'ZINC02562361'
p3903
aS'k4'
p3904
aS'ZINC30725157'
p3905
aa(lp3906
S'ZINC00902225'
p3907
aS'k1'
p3908
aS'ZINC18168715'
p3909
aS'k2'
p3910
aS'ZINC02562361'
p3911
aS'k4'
p3912
aS'ZINC30725157'
p3913
aa(lp3914
S'ZINC00902225'
p3915
aS'k1'
p3916
aS'ZINC18168715'
p3917
aS'k2'
p3918
aS'ZINC02562361'
p3919
aS'k4'
p3920
aS'ZINC30725161'
p3921
aasI1640
(lp3922
sI1641
(lp3923
sI1642
(lp3924
sI1643
(lp3925
sI1644
(lp3926
sI1645
(lp3927
sI1646
(lp3928
sI1647
(lp3929
sI1648
(lp3930
sI1649
(lp3931
sI1650
(lp3932
sI1651
(lp3933
sI1652
(lp3934
sI1653
(lp3935
sI1654
(lp3936
sI1655
(lp3937
sI1656
(lp3938
sI1657
(lp3939
(lp3940
S'ZINC03606137'
p3941
aS'k3'
p3942
aS'ZINC18168715'
p3943
aS'k2'
p3944
aS'ZINC02562361'
p3945
aS'k4'
p3946
aS'ZINC30725161'
p3947
aa(lp3948
S'ZINC03606137'
p3949
aS'k3'
p3950
aS'ZINC18168715'
p3951
aS'k2'
p3952
aS'ZINC02562361'
p3953
aS'k4'
p3954
aS'ZINC30725157'
p3955
aasI1658
(lp3956
sI1659
(lp3957
sI1660
(lp3958
sI1661
(lp3959
sI1662
(lp3960
sI1663
(lp3961
sI1664
(lp3962
sI1665
(lp3963
sI1666
(lp3964
sI1667
(lp3965
sI1668
(lp3966
sI1669
(lp3967
sI1670
(lp3968
sI1671
(lp3969
sI1672
(lp3970
sI1673
(lp3971
sI1674
(lp3972
sI1675
(lp3973
sI1676
(lp3974
sI1677
(lp3975
sI1678
(lp3976
sI1679
(lp3977
sI1680
(lp3978
sI1681
(lp3979
sI1682
(lp3980
(lp3981
S'ZINC03606137'
p3982
aS'k3'
p3983
aS'ZINC18168715'
p3984
aS'k2'
p3985
aS'ZINC02562361'
p3986
aS'k4'
p3987
aS'ZINC30725157'
p3988
aa(lp3989
S'ZINC03606137'
p3990
aS'k3'
p3991
aS'ZINC18168715'
p3992
aS'k2'
p3993
aS'ZINC02562361'
p3994
aS'k4'
p3995
aS'ZINC30725161'
p3996
aasI1683
(lp3997
sI1684
(lp3998
sI1685
(lp3999
sI1686
(lp4000
sI1687
(lp4001
(lp4002
S'ZINC00902225'
p4003
aS'k1'
p4004
aS'ZINC18168715'
p4005
aS'k2'
p4006
aS'ZINC02562361'
p4007
aS'k4'
p4008
aS'ZINC30725161'
p4009
aa(lp4010
S'ZINC00902225'
p4011
aS'k1'
p4012
aS'ZINC18168715'
p4013
aS'k2'
p4014
aS'ZINC02562361'
p4015
aS'k4'
p4016
aS'ZINC30725157'
p4017
aa(lp4018
S'ZINC00895279'
p4019
aS'k1'
p4020
aS'ZINC18168715'
p4021
aS'k2'
p4022
aS'ZINC02562361'
p4023
aS'k4'
p4024
aS'ZINC30725161'
p4025
aa(lp4026
S'ZINC00895279'
p4027
aS'k1'
p4028
aS'ZINC18168715'
p4029
aS'k2'
p4030
aS'ZINC02562361'
p4031
aS'k4'
p4032
aS'ZINC30725157'
p4033
aasI1688
(lp4034
(lp4035
S'ZINC00902225'
p4036
aS'k1'
p4037
aS'ZINC18168715'
p4038
aS'k2'
p4039
aS'ZINC02562361'
p4040
aS'k4'
p4041
aS'ZINC30725157'
p4042
aa(lp4043
S'ZINC00895279'
p4044
aS'k1'
p4045
aS'ZINC18168715'
p4046
aS'k2'
p4047
aS'ZINC02562361'
p4048
aS'k4'
p4049
aS'ZINC30725157'
p4050
aa(lp4051
S'ZINC00902225'
p4052
aS'k1'
p4053
aS'ZINC18168715'
p4054
aS'k2'
p4055
aS'ZINC02562361'
p4056
aS'k4'
p4057
aS'ZINC30725161'
p4058
aa(lp4059
S'ZINC00895279'
p4060
aS'k1'
p4061
aS'ZINC18168715'
p4062
aS'k2'
p4063
aS'ZINC02562361'
p4064
aS'k4'
p4065
aS'ZINC30725161'
p4066
aasI1689
(lp4067
sI1690
(lp4068
sI1691
(lp4069
sI1692
(lp4070
sI1693
(lp4071
sI1694
(lp4072
sI1695
(lp4073
sI1696
(lp4074
sI1697
(lp4075
(lp4076
S'ZINC04658557'
p4077
aS's1'
p4078
aS'ZINC04658554'
p4079
aS'k2'
p4080
aS'ZINC01532865'
p4081
aS's2'
p4082
aS'ZINC00895967'
p4083
aasI1698
(lp4084
sI1699
(lp4085
sI1700
(lp4086
sI1701
(lp4087
sI1702
(lp4088
sI1703
(lp4089
sI1704
(lp4090
(lp4091
S'ZINC04658557'
p4092
aS's1'
p4093
aS'ZINC04658554'
p4094
aS'k2'
p4095
aS'ZINC01532865'
p4096
aS's2'
p4097
aS'ZINC00895967'
p4098
aasI1705
(lp4099
sI1706
(lp4100
sI1707
(lp4101
sI1708
(lp4102
sI1709
(lp4103
sI1710
(lp4104
sI1711
(lp4105
sI1712
(lp4106
sI1713
(lp4107
(lp4108
S'ZINC03606137'
p4109
aS'k2'
p4110
aS'ZINC03870009'
p4111
aS'k3'
p4112
aS'ZINC02562361'
p4113
aS'k4'
p4114
aS'ZINC30725161'
p4115
aa(lp4116
S'ZINC03606137'
p4117
aS'k2'
p4118
aS'ZINC03870009'
p4119
aS'k3'
p4120
aS'ZINC02562361'
p4121
aS'k4'
p4122
aS'ZINC30725157'
p4123
aasI1714
(lp4124
sI1715
(lp4125
sI1716
(lp4126
sI1717
(lp4127
sI1718
(lp4128
sI1719
(lp4129
sI1720
(lp4130
sI1721
(lp4131
sI1722
(lp4132
sI1723
(lp4133
sI1724
(lp4134
sI1725
(lp4135
sI1726
(lp4136
sI1727
(lp4137
sI1728
(lp4138
sI1729
(lp4139
(lp4140
S'ZINC04658557'
p4141
aS's1'
p4142
aS'ZINC04658554'
p4143
aS'k2'
p4144
aS'ZINC01532864'
p4145
aS's2'
p4146
aS'ZINC00901639'
p4147
aasI1730
(lp4148
sI1731
(lp4149
sI1732
(lp4150
sI1733
(lp4151
sI1734
(lp4152
sI1735
(lp4153
sI1736
(lp4154
(lp4155
S'ZINC00895279'
p4156
aS'k1'
p4157
aS'ZINC18168715'
p4158
aS'k2'
p4159
aS'ZINC02562361'
p4160
aS'k4'
p4161
aS'ZINC30725157'
p4162
aa(lp4163
S'ZINC00902225'
p4164
aS'k1'
p4165
aS'ZINC18168715'
p4166
aS'k2'
p4167
aS'ZINC02562361'
p4168
aS'k4'
p4169
aS'ZINC30725157'
p4170
aa(lp4171
S'ZINC00902225'
p4172
aS'k1'
p4173
aS'ZINC18168715'
p4174
aS'k2'
p4175
aS'ZINC02562361'
p4176
aS'k4'
p4177
aS'ZINC30725161'
p4178
aa(lp4179
S'ZINC00895279'
p4180
aS'k1'
p4181
aS'ZINC18168715'
p4182
aS'k2'
p4183
aS'ZINC02562361'
p4184
aS'k4'
p4185
aS'ZINC30725161'
p4186
aasI1737
(lp4187
sI1738
(lp4188
sI1739
(lp4189
(lp4190
S'ZINC03606137'
p4191
aS'k2'
p4192
aS'ZINC03870009'
p4193
aS'k3'
p4194
aS'ZINC02562361'
p4195
aS'k4'
p4196
aS'ZINC30725157'
p4197
aa(lp4198
S'ZINC03606137'
p4199
aS'k2'
p4200
aS'ZINC03870009'
p4201
aS'k3'
p4202
aS'ZINC02562361'
p4203
aS'k4'
p4204
aS'ZINC30725161'
p4205
aasI1740
(lp4206
sI1741
(lp4207
sI1742
(lp4208
sI1743
(lp4209
sI1744
(lp4210
sI1745
(lp4211
sI1746
(lp4212
sI1747
(lp4213
sI1748
(lp4214
sI1749
(lp4215
sI1750
(lp4216
sI1751
(lp4217
sI1752
(lp4218
sI1753
(lp4219
sI1754
(lp4220
sI1755
(lp4221
sI1756
(lp4222
sI1757
(lp4223
sI1758
(lp4224
sI1759
(lp4225
sI1760
(lp4226
sI1761
(lp4227
sI1762
(lp4228
sI1763
(lp4229
sI1764
(lp4230
sI1765
(lp4231
sI1766
(lp4232
sI1767
(lp4233
sI1768
(lp4234
sI1769
(lp4235
sI1770
(lp4236
sI1771
(lp4237
sI1772
(lp4238
sI1773
(lp4239
sI1774
(lp4240
sI1775
(lp4241
sI1776
(lp4242
sI1777
(lp4243
sI1778
(lp4244
sI1779
(lp4245
(lp4246
S'ZINC01532567'
p4247
aS'k3'
p4248
aS'ZINC00902225'
p4249
aS'k1'
p4250
aS'ZINC18168715'
p4251
aS'k2'
p4252
aS'ZINC03870005'
p4253
aa(lp4254
S'ZINC01532567'
p4255
aS'k3'
p4256
aS'ZINC00902225'
p4257
aS'k1'
p4258
aS'ZINC18168715'
p4259
aS'k2'
p4260
aS'ZINC02562361'
p4261
aasI1780
(lp4262
sI1781
(lp4263
sI1782
(lp4264
sI1783
(lp4265
sI1784
(lp4266
sI1785
(lp4267
(lp4268
S'ZINC00902225'
p4269
aS'k1'
p4270
aS'ZINC18168715'
p4271
aS'k2'
p4272
aS'ZINC02562361'
p4273
aS'k4'
p4274
aS'ZINC30725157'
p4275
aa(lp4276
S'ZINC00902225'
p4277
aS'k1'
p4278
aS'ZINC18168715'
p4279
aS'k2'
p4280
aS'ZINC02562361'
p4281
aS'k4'
p4282
aS'ZINC30725161'
p4283
aa(lp4284
S'ZINC00895279'
p4285
aS'k1'
p4286
aS'ZINC18168715'
p4287
aS'k2'
p4288
aS'ZINC02562361'
p4289
aS'k4'
p4290
aS'ZINC30725161'
p4291
aa(lp4292
S'ZINC00895279'
p4293
aS'k1'
p4294
aS'ZINC18168715'
p4295
aS'k2'
p4296
aS'ZINC02562361'
p4297
aS'k4'
p4298
aS'ZINC30725157'
p4299
aasI1786
(lp4300
(lp4301
S'ZINC00895279'
p4302
aS'k1'
p4303
aS'ZINC18168715'
p4304
aS'k2'
p4305
aS'ZINC02562361'
p4306
aS'k4'
p4307
aS'ZINC30725161'
p4308
aa(lp4309
S'ZINC00902225'
p4310
aS'k1'
p4311
aS'ZINC18168715'
p4312
aS'k2'
p4313
aS'ZINC02562361'
p4314
aS'k4'
p4315
aS'ZINC30725161'
p4316
aa(lp4317
S'ZINC00902225'
p4318
aS'k1'
p4319
aS'ZINC18168715'
p4320
aS'k2'
p4321
aS'ZINC02562361'
p4322
aS'k4'
p4323
aS'ZINC30725157'
p4324
aasI1787
(lp4325
sI1788
(lp4326
sI1789
(lp4327
sI1790
(lp4328
sI1791
(lp4329
sI1792
(lp4330
sI1793
(lp4331
sI1794
(lp4332
sI1795
(lp4333
sI1796
(lp4334
sI1797
(lp4335
sI1798
(lp4336
(lp4337
S'ZINC03606137'
p4338
aS'k2'
p4339
aS'ZINC03870009'
p4340
aS'k3'
p4341
aS'ZINC02562361'
p4342
aS'k4'
p4343
aS'ZINC30725161'
p4344
aa(lp4345
S'ZINC03606137'
p4346
aS'k2'
p4347
aS'ZINC03870009'
p4348
aS'k3'
p4349
aS'ZINC02562361'
p4350
aS'k4'
p4351
aS'ZINC30725157'
p4352
aasI1799
(lp4353
sI1800
(lp4354
sI1801
(lp4355
sI1802
(lp4356
sI1803
(lp4357
sI1804
(lp4358
(lp4359
S'ZINC03606137'
p4360
aS'k2'
p4361
aS'ZINC03870009'
p4362
aS'k3'
p4363
aS'ZINC02562361'
p4364
aS'k4'
p4365
aS'ZINC30725161'
p4366
aa(lp4367
S'ZINC03606137'
p4368
aS'k2'
p4369
aS'ZINC03870009'
p4370
aS'k3'
p4371
aS'ZINC02562361'
p4372
aS'k4'
p4373
aS'ZINC30725157'
p4374
aasI1805
(lp4375
sI1806
(lp4376
sI1807
(lp4377
sI1808
(lp4378
sI1809
(lp4379
sI1810
(lp4380
sI1811
(lp4381
sI1812
(lp4382
sI1813
(lp4383
sI1814
(lp4384
sI1815
(lp4385
sI1816
(lp4386
sI1817
(lp4387
sI1818
(lp4388
sI1819
(lp4389
sI1820
(lp4390
sI1821
(lp4391
sI1822
(lp4392
sI1823
(lp4393
sI1824
(lp4394
sI1825
(lp4395
sI1826
(lp4396
sI1827
(lp4397
sI1828
(lp4398
sI1829
(lp4399
sI1830
(lp4400
sI1831
(lp4401
sI1832
(lp4402
sI1833
(lp4403
sI1834
(lp4404
sI1835
(lp4405
sI1836
(lp4406
sI1837
(lp4407
sI1838
(lp4408
sI1839
(lp4409
sI1840
(lp4410
sI1841
(lp4411
sI1842
(lp4412
(lp4413
S'ZINC00902225'
p4414
aS'k1'
p4415
aS'ZINC18168715'
p4416
aS'k2'
p4417
aS'ZINC02562361'
p4418
aS'k4'
p4419
aS'ZINC30725161'
p4420
aa(lp4421
S'ZINC00895279'
p4422
aS'k1'
p4423
aS'ZINC18168715'
p4424
aS'k2'
p4425
aS'ZINC02562361'
p4426
aS'k4'
p4427
aS'ZINC30725161'
p4428
aa(lp4429
S'ZINC00895279'
p4430
aS'k1'
p4431
aS'ZINC18168715'
p4432
aS'k2'
p4433
aS'ZINC02562361'
p4434
aS'k4'
p4435
aS'ZINC30725157'
p4436
aa(lp4437
S'ZINC00902225'
p4438
aS'k1'
p4439
aS'ZINC18168715'
p4440
aS'k2'
p4441
aS'ZINC02562361'
p4442
aS'k4'
p4443
aS'ZINC30725157'
p4444
aasI1843
(lp4445
sI1844
(lp4446
sI1845
(lp4447
sI1846
(lp4448
sI1847
(lp4449
sI1848
(lp4450
sI1849
(lp4451
sI1850
(lp4452
sI1851
(lp4453
sI1852
(lp4454
sI1853
(lp4455
sI1854
(lp4456
(lp4457
S'ZINC03606137'
p4458
aS'k2'
p4459
aS'ZINC03870009'
p4460
aS'k3'
p4461
aS'ZINC02562361'
p4462
aS'k4'
p4463
aS'ZINC30725157'
p4464
aa(lp4465
S'ZINC03606137'
p4466
aS'k2'
p4467
aS'ZINC03870009'
p4468
aS'k3'
p4469
aS'ZINC02562361'
p4470
aS'k4'
p4471
aS'ZINC30725161'
p4472
aasI1855
(lp4473
sI1856
(lp4474
sI1857
(lp4475
sI1858
(lp4476
sI1859
(lp4477
sI1860
(lp4478
sI1861
(lp4479
sI1862
(lp4480
sI1863
(lp4481
sI1864
(lp4482
sI1865
(lp4483
sI1866
(lp4484
sI1867
(lp4485
sI1868
(lp4486
sI1869
(lp4487
sI1870
(lp4488
sI1871
(lp4489
sI1872
(lp4490
sI1873
(lp4491
sI1874
(lp4492
sI1875
(lp4493
sI1876
(lp4494
sI1877
(lp4495
sI1878
(lp4496
sI1879
(lp4497
sI1880
(lp4498
(lp4499
S'ZINC00902225'
p4500
aS'k1'
p4501
aS'ZINC18168715'
p4502
aS'k2'
p4503
aS'ZINC02562361'
p4504
aS'k4'
p4505
aS'ZINC30725157'
p4506
aa(lp4507
S'ZINC00895279'
p4508
aS'k1'
p4509
aS'ZINC18168715'
p4510
aS'k2'
p4511
aS'ZINC02562361'
p4512
aS'k4'
p4513
aS'ZINC30725157'
p4514
aa(lp4515
S'ZINC00902225'
p4516
aS'k1'
p4517
aS'ZINC18168715'
p4518
aS'k2'
p4519
aS'ZINC02562361'
p4520
aS'k4'
p4521
aS'ZINC30725161'
p4522
aa(lp4523
S'ZINC00895279'
p4524
aS'k1'
p4525
aS'ZINC18168715'
p4526
aS'k2'
p4527
aS'ZINC02562361'
p4528
aS'k4'
p4529
aS'ZINC30725161'
p4530
aasI1881
(lp4531
sI1882
(lp4532
sI1883
(lp4533
sI1884
(lp4534
sI1885
(lp4535
sI1886
(lp4536
sI1887
(lp4537
sI1888
(lp4538
sI1889
(lp4539
sI1890
(lp4540
sI1891
(lp4541
sI1892
(lp4542
sI1893
(lp4543
sI1894
(lp4544
sI1895
(lp4545
sI1896
(lp4546
sI1897
(lp4547
sI1898
(lp4548
sI1899
(lp4549
sI1900
(lp4550
sI1901
(lp4551
sI1902
(lp4552
sI1903
(lp4553
sI1904
(lp4554
sI1905
(lp4555
sI1906
(lp4556
sI1907
(lp4557
sI1908
(lp4558
sI1909
(lp4559
sI1910
(lp4560
sI1911
(lp4561
sI1912
(lp4562
sI1913
(lp4563
sI1914
(lp4564
sI1915
(lp4565
sI1916
(lp4566
sI1917
(lp4567
sI1918
(lp4568
sI1919
(lp4569
sI1920
(lp4570
sI1921
(lp4571
sI1922
(lp4572
sI1923
(lp4573
sI1924
(lp4574
sI1925
(lp4575
sI1926
(lp4576
sI1927
(lp4577
sI1928
(lp4578
sI1929
(lp4579
sI1930
(lp4580
sI1931
(lp4581
sI1932
(lp4582
(lp4583
S'ZINC00895279'
p4584
aS'k1'
p4585
aS'ZINC18168715'
p4586
aS'k2'
p4587
aS'ZINC02562361'
p4588
aS'k4'
p4589
aS'ZINC30725157'
p4590
aa(lp4591
S'ZINC00902225'
p4592
aS'k1'
p4593
aS'ZINC18168715'
p4594
aS'k2'
p4595
aS'ZINC02562361'
p4596
aS'k4'
p4597
aS'ZINC30725157'
p4598
aa(lp4599
S'ZINC00895279'
p4600
aS'k1'
p4601
aS'ZINC18168715'
p4602
aS'k2'
p4603
aS'ZINC02562361'
p4604
aS'k4'
p4605
aS'ZINC30725161'
p4606
aa(lp4607
S'ZINC00902225'
p4608
aS'k1'
p4609
aS'ZINC18168715'
p4610
aS'k2'
p4611
aS'ZINC02562361'
p4612
aS'k4'
p4613
aS'ZINC30725161'
p4614
aasI1933
(lp4615
sI1934
(lp4616
(lp4617
S'ZINC03606137'
p4618
aS'k3'
p4619
aS'ZINC18168715'
p4620
aS'k2'
p4621
aS'ZINC02562361'
p4622
aS'k4'
p4623
aS'ZINC30725161'
p4624
aa(lp4625
S'ZINC03606137'
p4626
aS'k3'
p4627
aS'ZINC18168715'
p4628
aS'k2'
p4629
aS'ZINC02562361'
p4630
aS'k4'
p4631
aS'ZINC30725157'
p4632
aasI1935
(lp4633
sI1936
(lp4634
sI1937
(lp4635
sI1938
(lp4636
(lp4637
S'ZINC00895279'
p4638
aS'k1'
p4639
aS'ZINC18168715'
p4640
aS'k2'
p4641
aS'ZINC02562361'
p4642
aS'k4'
p4643
aS'ZINC30725161'
p4644
aa(lp4645
S'ZINC00895279'
p4646
aS'k1'
p4647
aS'ZINC18168715'
p4648
aS'k2'
p4649
aS'ZINC02562361'
p4650
aS'k4'
p4651
aS'ZINC30725157'
p4652
aa(lp4653
S'ZINC00902225'
p4654
aS'k1'
p4655
aS'ZINC18168715'
p4656
aS'k2'
p4657
aS'ZINC02562361'
p4658
aS'k4'
p4659
aS'ZINC30725157'
p4660
aa(lp4661
S'ZINC00902225'
p4662
aS'k1'
p4663
aS'ZINC18168715'
p4664
aS'k2'
p4665
aS'ZINC02562361'
p4666
aS'k4'
p4667
aS'ZINC30725161'
p4668
aasI1939
(lp4669
sI1940
(lp4670
sI1941
(lp4671
sI1942
(lp4672
sI1943
(lp4673
sI1944
(lp4674
sI1945
(lp4675
(lp4676
S'ZINC00895279'
p4677
aS'k1'
p4678
aS'ZINC18168715'
p4679
aS'k2'
p4680
aS'ZINC02562361'
p4681
aS'k4'
p4682
aS'ZINC30725157'
p4683
aa(lp4684
S'ZINC00902225'
p4685
aS'k1'
p4686
aS'ZINC18168715'
p4687
aS'k2'
p4688
aS'ZINC02562361'
p4689
aS'k4'
p4690
aS'ZINC30725157'
p4691
aa(lp4692
S'ZINC00902225'
p4693
aS'k1'
p4694
aS'ZINC18168715'
p4695
aS'k2'
p4696
aS'ZINC02562361'
p4697
aS'k4'
p4698
aS'ZINC30725161'
p4699
aa(lp4700
S'ZINC00895279'
p4701
aS'k1'
p4702
aS'ZINC18168715'
p4703
aS'k2'
p4704
aS'ZINC02562361'
p4705
aS'k4'
p4706
aS'ZINC30725161'
p4707
aasI1946
(lp4708
sI1947
(lp4709
sI1948
(lp4710
sI1949
(lp4711
sI1950
(lp4712
sI1951
(lp4713
sI1952
(lp4714
sI1953
(lp4715
sI1954
(lp4716
sI1955
(lp4717
sI1956
(lp4718
sI1957
(lp4719
sI1958
(lp4720
sI1959
(lp4721
sI1960
(lp4722
sI1961
(lp4723
(lp4724
S'ZINC03606137'
p4725
aS'k3'
p4726
aS'ZINC18168715'
p4727
aS'k2'
p4728
aS'ZINC02562361'
p4729
aS'k4'
p4730
aS'ZINC30725161'
p4731
aa(lp4732
S'ZINC03606137'
p4733
aS'k3'
p4734
aS'ZINC18168715'
p4735
aS'k2'
p4736
aS'ZINC02562361'
p4737
aS'k4'
p4738
aS'ZINC30725157'
p4739
aasI1962
(lp4740
sI1963
(lp4741
sI1964
(lp4742
sI1965
(lp4743
sI1966
(lp4744
sI1967
(lp4745
sI1968
(lp4746
sI1969
(lp4747
sI1970
(lp4748
sI1971
(lp4749
sI1972
(lp4750
sI1973
(lp4751
sI1974
(lp4752
sI1975
(lp4753
sI1976
(lp4754
sI1977
(lp4755
sI1978
(lp4756
sI1979
(lp4757
sI1980
(lp4758
sI1981
(lp4759
sI1982
(lp4760
sI1983
(lp4761
sI1984
(lp4762
sI1985
(lp4763
sI1986
(lp4764
(lp4765
S'ZINC03606137'
p4766
aS'k3'
p4767
aS'ZINC18168715'
p4768
aS'k2'
p4769
aS'ZINC02562361'
p4770
aS'k4'
p4771
aS'ZINC30725161'
p4772
aasI1987
(lp4773
sI1988
(lp4774
sI1989
(lp4775
sI1990
(lp4776
sI1991
(lp4777
sI1992
(lp4778
sI1993
(lp4779
(lp4780
S'ZINC00902225'
p4781
aS'k1'
p4782
aS'ZINC18168715'
p4783
aS'k2'
p4784
aS'ZINC02562361'
p4785
aS'k4'
p4786
aS'ZINC30725157'
p4787
aa(lp4788
S'ZINC00895279'
p4789
aS'k1'
p4790
aS'ZINC18168715'
p4791
aS'k2'
p4792
aS'ZINC02562361'
p4793
aS'k4'
p4794
aS'ZINC30725157'
p4795
aa(lp4796
S'ZINC00895279'
p4797
aS'k1'
p4798
aS'ZINC18168715'
p4799
aS'k2'
p4800
aS'ZINC02562361'
p4801
aS'k4'
p4802
aS'ZINC30725161'
p4803
aa(lp4804
S'ZINC00902225'
p4805
aS'k1'
p4806
aS'ZINC18168715'
p4807
aS'k2'
p4808
aS'ZINC02562361'
p4809
aS'k4'
p4810
aS'ZINC30725161'
p4811
aasI1994
(lp4812
sI1995
(lp4813
sI1996
(lp4814
sI1997
(lp4815
sI1998
(lp4816
sI1999
(lp4817
sI2000
(lp4818
ssS'uniqpathstrs'
p4819
(lp4820
g52
ag60
ag68
ag76
ag85
ag93
ag203
ag211
ag226
ag234
ag548
ag1831
asS'best_score'
p4821
cnumpy.core.multiarray
scalar
p4822
(g35
S'@\xc3\xc9A'
p4823
tp4824
Rp4825
sS'flatclusters'
p4826
g10
(g11
(I0
tp4827
g13
tp4828
Rp4829
(I1
(I12
tp4830
g29
I00
S'\x06\x00\x00\x00\x06\x00\x00\x00\x06\x00\x00\x00\x06\x00\x00\x00\x05\x00\x00\x00\x05\x00\x00\x00\x04\x00\x00\x00\x04\x00\x00\x00\x01\x00\x00\x00\x01\x00\x00\x00\x02\x00\x00\x00\x03\x00\x00\x00'
p4831
tp4832
bsS'num_runs'
p4833
g4822
(g17
(S'i8'
p4834
I0
I1
tp4835
Rp4836
(I3
S'<'
p4837
NNNI-1
I-1
I0
tp4838
bS'\xd0\x07\x00\x00\x00\x00\x00\x00'
p4839
tp4840
Rp4841
sS'reprclusters'
p4842
(dp4843
I1
g4822
(g17
(S'S78'
p4844
I0
I1
tp4845
Rp4846
(I3
S'|'
p4847
NNNI78
I1
I0
tp4848
bS'ZINC01532567 -> k3 -> ZINC00902225 -> k1 -> ZINC18168715 -> k2 -> ZINC03870005'
p4849
tp4850
Rp4851
sI2
g4822
(g17
(S'S78'
p4852
I0
I1
tp4853
Rp4854
(I3
S'|'
p4855
NNNI78
I1
I0
tp4856
bS'ZINC04658557 -> s1 -> ZINC04658554 -> k2 -> ZINC01532865 -> s2 -> ZINC00895967'
p4857
tp4858
Rp4859
sI3
g4822
(g17
(S'S78'
p4860
I0
I1
tp4861
Rp4862
(I3
S'|'
p4863
NNNI78
I1
I0
tp4864
bS'ZINC04658557 -> s1 -> ZINC04658554 -> k2 -> ZINC01532864 -> s2 -> ZINC00901639'
p4865
tp4866
Rp4867
sI4
g4822
(g17
(S'S78'
p4868
I0
I1
tp4869
Rp4870
(I3
S'|'
p4871
NNNI78
I1
I0
tp4872
bS'ZINC03606137 -> k2 -> ZINC03870009 -> k3 -> ZINC02562361 -> k4 -> ZINC30725157'
p4873
tp4874
Rp4875
sI5
g4822
(g17
(S'S78'
p4876
I0
I1
tp4877
Rp4878
(I3
S'|'
p4879
NNNI78
I1
I0
tp4880
bS'ZINC03606137 -> k3 -> ZINC18168715 -> k2 -> ZINC02562361 -> k4 -> ZINC30725157'
p4881
tp4882
Rp4883
sI6
g4822
(g17
(S'S78'
p4884
I0
I1
tp4885
Rp4886
(I3
S'|'
p4887
NNNI78
I1
I0
tp4888
bS'ZINC00902225 -> k1 -> ZINC18168715 -> k2 -> ZINC02562361 -> k4 -> ZINC30725157'
p4889
tp4890
Rp4891
ssS'conv_test_means'
p4892
NsS'best_path'
p4893
g4822
(g17
(S'S78'
p4894
I0
I1
tp4895
Rp4896
(I3
S'|'
p4897
NNNI78
I1
I0
tp4898
bS'ZINC04658557 -> s1 -> ZINC04658554 -> k2 -> ZINC01532865 -> s2 -> ZINC00895967'
p4899
tp4900
Rp4901
sb.